csage.libs.pari.gen_py
pari
p0
(S'[y^7 - 2*y + 3, [1, 3], -594390879, 1, [[1, -1.27757093228636, 1.63218748702305, -2.08523528946217, 2.66403599279461, -3.40349494695904, 1.60874725825397; 1, 0.969781999191540 + 0.367486000166440*I, 0.805431165637611 + 0.712762615832625*I, 0.519162363262715 + 0.987209032000713*I, 0.140688816051795 + 1.14816244898597*I, -0.285496144624556 + 1.16516844545329*I, -2.84985944200802 + 3.33837444261483*I; 1, -0.720032028926329 + 1.02740818108539*I, -0.537121447881422 - 1.47953359432484*I, 1.90682956489792 + 0.513468605996577*I, -1.90052020696155 + 1.58937845274593*I, -0.264505004557992 - 3.09701340101284*I, -0.792676231294813 + 0.450559288855485*I; 1, 0.389035495877971 + 1.11164386307879*I, -1.08440346126771 + 0.864937843025119*I, -1.38337428342955 - 0.868978930154750*I, 0.427813394512451 - 1.87588318151574*I, 2.25174862266207 - 0.254209009177450*I, 1.83816204417585 + 0.274154018943221*I], [1, -1.27757093228636, 1.63218748702305, -2.08523528946217, 2.66403599279461, -3.40349494695904, 1.60874725825397; 1, 1.33726799935798, 1.51819378147024, 1.50637139526343, 1.28885126503776, 0.879672300828735, 0.488515000606813; 1, 0.602295999025100, 0.0926685498049863, -0.468046668737998, -1.00747363293417, -1.45066459007785, -6.18823388462285; 1, 0.307376152159061, -2.01665504220627, 2.42029817089450, -0.311141754215624, -3.36151840557083, -0.342116942439328; 1, -1.74744021001172, 0.942412146443420, 1.39336095890135, -3.48989865970748, 2.83250839645484, -1.24323552015030; 1, 1.50067935895676, -0.219465618242594, -2.25235321358430, -1.44806978700329, 1.99753961348462, 2.11231606311907; 1, -0.722608367200817, -1.94934130429283, -0.514395353274800, 2.30369657602819, 2.50595763183952, 1.56400802523263], [1, -1, 2, -2, 3, -3, 2; 1, 1, 2, 2, 1, 1, 0; 1, 1, 0, 0, -1, -1, -6; 1, 0, -2, 2, 0, -3, 0; 1, -2, 1, 1, -3, 3, -1; 1, 2, 0, -2, -1, 2, 2; 1, -1, -2, -1, 2, 3, 2], [7, 0, 0, 0, 0, 0, -2; 0, 0, 0, 0, 0, 12, -9; 0, 0, 0, 0, 12, -21, -9; 0, 0, 0, 12, -21, 0, -21; 0, 0, 12, -21, 0, 0, 0; 0, 12, -21, 0, 0, 0, 0; -2, -9, -9, -21, 0, 0, 4], [2446053, 611508, 1070139, 1261230, 984126, 499194, 2182194; 0, 3, 0, 0, 0, 0, 0; 0, 0, 3, 0, 0, 0, 0; 0, 0, 0, 3, 0, 0, 0; 0, 0, 0, 0, 3, 0, 2; 0, 0, 0, 0, 0, 3, 2; 0, 0, 0, 0, 0, 0, 1], [348851, -33614, -19208, -10976, -4224, -1536, -2048; -33614, -19208, -10976, -6272, 114065, 115601, -117649; -19208, -10976, -6272, -3584, 65180, -50421, -67228; -10976, -6272, -3584, -2048, -79233, -28812, -38416; -4224, 114065, 65180, -79233, -30492, -11088, -14784; -1536, 115601, -50421, -28812, -11088, -4032, -5376; -2048, -117649, -67228, -38416, -14784, -5376, -7168], [2446053, [931830, 407676, -1732620, -3032085, -3471609, 1466681, 940319; -981749, 931830, 407676, -1732620, -3032085, -3471609, -3073515; -1143393, -981749, 931830, 407676, -1732620, -3032085, -5949528; 394941, -1143393, -981749, 931830, 407676, -1732620, -5146911; 458637, -1031925, -2417382, -1376690, 2075223, 1389425, -117076; 611514, -152877, -879048, -1538334, 161644, 1913579, 328041; 815352, 1426866, 1273989, 394941, -1143393, -981749, -2824016]], []], [-1.27757093228636, 0.969781999191540 + 0.367486000166440*I, -0.720032028926329 + 1.02740818108539*I, 0.389035495877971 + 1.11164386307879*I], [1, y, y^2, y^3, y^4, y^5, y^6 + y^5 + y^4 - 2], [1, 0, 0, 0, 0, 0, 2; 0, 1, 0, 0, 0, 0, 0; 0, 0, 1, 0, 0, 0, 0; 0, 0, 0, 1, 0, 0, 0; 0, 0, 0, 0, 1, 0, -1; 0, 0, 0, 0, 0, 1, -1; 0, 0, 0, 0, 0, 0, 1], [1, 0, 0, 0, 0, 0, 0, 0, 0, 0, 0, 0, 2, -1, 0, 0, 0, 0, 2, -3, -1, 0, 0, 0, 2, -3, 0, -3, 0, 0, 2, -3, 0, 0, 0, 0, 2, -3, 0, 0, 0, 0, 0, -1, -1, -3, 0, 0, 0; 0, 1, 0, 0, 0, 0, 0, 1, 0, 0, 0, 0, 0, 0, 0, 0, 0, 0, 0, 2, -1, 0, 0, 0, 0, 2, -3, -1, 0, 0, 0, 2, -3, 0, -3, 0, 0, 2, -3, 0, 0, 0, 0, 0, -1, -1, -3, 0, -3; 0, 0, 1, 0, 0, 0, 0, 0, 1, 0, 0, 0, 0, 0, 1, 0, 0, 0, 0, 0, 0, 0, 0, 0, 0, 0, 2, -1, 0, 0, 0, 0, 2, -3, -1, 0, 0, 0, 2, -3, 0, -3, 0, 0, 0, -1, -1, -3, -4; 0, 0, 0, 1, 0, 0, 0, 0, 0, 1, 0, 0, 0, 0, 0, 1, 0, 0, 0, 0, 0, 1, 0, 0, 0, 0, 0, 0, 0, 0, 0, 0, 0, 2, -1, 0, 0, 0, 0, 2, -3, -1, 0, 0, 0, 0, -1, -1, -5; 0, 0, 0, 0, 1, 0, 0, 0, 0, 0, 1, 0, -1, -1, 0, 0, 1, 0, -1, 0, -1, 0, 1, 0, -1, 0, 0, 0, 1, 0, -1, 0, 0, 0, 0, 0, -1, 0, 0, 0, 2, -1, 0, -1, -1, 0, 0, -1, -2; 0, 0, 0, 0, 0, 1, 0, 0, 0, 0, 0, 1, -1, 0, 0, 0, 0, 1, -1, 0, -1, 0, 0, 1, -1, 0, 0, 0, 0, 1, -1, 0, 0, 0, 0, 1, -1, 0, 0, 0, 0, 0, 0, 0, -1, 0, 0, 0, -1; 0, 0, 0, 0, 0, 0, 1, 0, 0, 0, 0, 0, 1, 1, 0, 0, 0, 0, 1, 0, 1, 0, 0, 0, 1, 0, 0, 0, 0, 0, 1, 0, 0, 0, 0, 0, 1, 0, 0, 0, 0, 0, 1, 1, 1, 0, 0, 0, -2]]'
p1
tp2
Rp3
.