csage.libs.pari.gen_py
pari
p0
(S'[y^9 - 28*y + 1, [3, 3], -177477040476424531639, 1, [[1, -1.52108906102463, 2.31371193156878, -3.51936190947144, 5.35326290228376, -8.14278964145277, 3.65742370096751, 12.3859082498385, -18.8400695496840; 1, 0.0357142857142891, 0.00127551020408187, 4.55539358600712 E-5, 1.62692628071698 E-6, 5.81045100256120 E-8, -24.9999999999974, 2.07516107234348 E-9, 7.41128954408457 E-11; 1, 1.51215816755093, 2.28662232369100, 3.45773462287363, 5.22864165120201, 7.90653317806211, 2.33869351668445, 11.9559287222191, 18.0792552679603; 1, -1.07687916509103 + 1.07249734479445*I, 0.00941818161601690 - 2.30990009044919*I, 2.46721947019188 + 2.49758425562260*I, -5.33554972571223 - 0.0435101171334087*I, 5.79240681902396 - 5.67550777523348*I, 3.46619774525493 + 0.464300787073732*I, -0.150755199839963 + 12.3241770078336*I, -13.0553019839415 - 13.4333339981722*I; 1, 1.06795059501360 + 1.07249966548642*I, -0.00973705907856965 + 2.29075331181622*I, -2.46723085867145 + 2.43596836977893*I, -5.24745592527750 - 0.0446104006631673*I, -5.55617903791931 - 5.67553642844687*I, 2.53380359988264 + 0.468182222577882*I, 0.153286211417217 - 12.0201926653323*I, 13.0553547133416 - 12.6725724986512*I; 1, -0.00446312604286801 + 1.51674187809378*I, -2.30048600526938 - 0.0135388203528578*I, 0.0308022548105390 - 3.48918303869903*I, 5.29205256078371 + 0.0622917334992111*I, -0.118099578461571 + 8.02639972415606*I, 3.00194004603513 + 0.659302255560313*I, -12.1734494986436 - 0.214949410077236*I, 0.380354411424633 - 18.4630213091425*I], [1, -1.52108906102463, 2.31371193156878, -3.51936190947144, 5.35326290228376, -8.14278964145277, 3.65742370096751, 12.3859082498385, -18.8400695496840; 1, 0.0357142857142891, 0.00127551020408187, 4.55539358600712 E-5, 1.62692628071698 E-6, 5.81045100256120 E-8, -24.9999999999974, 2.07516107234348 E-9, 7.41128954408457 E-11; 1, 1.51215816755093, 2.28662232369100, 3.45773462287363, 5.22864165120201, 7.90653317806211, 2.33869351668445, 11.9559287222191, 18.0792552679603; 1, -0.00438182029658391, -2.30048190883318, 4.96480372581448, -5.37905984284564, 0.116899043790473, 3.93049853232866, 12.1734218079936, -26.4886359821137; 1, -2.14937650988548, 2.31931827206521, -0.0303647854307133, -5.29203960857882, 11.4679145942574, 3.00189695818120, -12.4749322076735, 0.378032014230725; 1, 2.14045026050002, 2.28101625273766, -0.0312624888925147, -5.29206632594067, -11.2317154663662, 3.00198582246052, -11.8669064539151, 0.382782214690453; 1, -0.00454907047281492, -2.30049037089479, -4.90319922845038, -5.20284552461434, 0.119357390527564, 2.06562137730476, 12.1734788767496, 25.7279272119928; 1, 1.51227875205091, -2.31402482562224, -3.45838078388849, 5.35434429428293, 7.90830014569449, 3.66124230159544, -12.3883989087208, -18.0826668977178; 1, -1.52120500413665, -2.28694718491652, 3.51998529350957, 5.22976082728450, -8.14449930261763, 2.34263779047482, -11.9585000885664, 18.8433757205671], [1, -2, 2, -4, 5, -8, 4, 12, -19; 1, 0, 0, 0, 0, 0, -25, 0, 0; 1, 2, 2, 3, 5, 8, 2, 12, 18; 1, 0, -2, 5, -5, 0, 4, 12, -26; 1, -2, 2, 0, -5, 11, 3, -12, 0; 1, 2, 2, 0, -5, -11, 3, -12, 0; 1, 0, -2, -5, -5, 0, 2, 12, 26; 1, 2, -2, -3, 5, 8, 4, -12, -18; 1, -2, -2, 4, 5, -8, 2, -12, 19], [9, 0, 0, 0, 0, 0, -1, 0, 0; 0, 0, 0, 0, 0, 0, -9, 0, 224; 0, 0, 0, 0, 0, 0, 0, 224, -9; 0, 0, 0, 0, 0, 224, 0, -9, 0; 0, 0, 0, 0, 224, -9, 0, 0, 0; 0, 0, 0, 224, -9, 0, 0, 0, 0; -1, -9, 0, 0, 0, 0, 697, 0, 0; 0, 0, 224, -9, 0, 0, 0, 0, 0; 0, 224, -9, 0, 0, 0, 0, 0, 0], [177477040476424531639, 125977006409604913083, 26453897993526368625, 141301434135128925972, 148292768718627571557, 35273595607568552744, 19719671164047170204, 33109571337165617144, 96407281246452831924; 0, 1, 0, 0, 0, 0, 0, 0, 0; 0, 0, 1, 0, 0, 0, 0, 0, 0; 0, 0, 0, 1, 0, 0, 0, 0, 0; 0, 0, 0, 0, 1, 0, 0, 0, 0; 0, 0, 0, 0, 0, 1, 0, 0, 0; 0, 0, 0, 0, 0, 0, 1, 0, 0; 0, 0, 0, 0, 0, 0, 0, 1, 0; 0, 0, 0, 0, 0, 0, 0, 0, 1], [19722815244271036607, 4782969, 119042784, 2962842624, 73741860864, 1835352981504, 28296722014797824, 45679896428544, 1136921866665984; 4782969, 3333197952, 82959593472, 2064772104192, 51389883482112, 1279037099999232, 43046721, 31833812266647552, 792308216414339072; 119042784, 82959593472, 2064772104192, 51389883482112, 1279037099999232, 31833812266647552, 1071385056, 792308216414339072, 43046721; 2962842624, 2064772104192, 51389883482112, 1279037099999232, 31833812266647552, 792308216414339072, 26665583616, 43046721, 1071385056; 73741860864, 51389883482112, 1279037099999232, 31833812266647552, 792308216414339072, 43046721, 663676747776, 1071385056, 26665583616; 1835352981504, 1279037099999232, 31833812266647552, 792308216414339072, 43046721, 1071385056, 16518176833536, 26665583616, 663676747776; 28296722014797824, 43046721, 1071385056, 26665583616, 663676747776, 16518176833536, 254670498133180416, 411119067856896, 10232296799993856; 45679896428544, 31833812266647552, 792308216414339072, 43046721, 1071385056, 26665583616, 411119067856896, 663676747776, 16518176833536; 1136921866665984, 792308216414339072, 43046721, 1071385056, 26665583616, 663676747776, 10232296799993856, 16518176833536, 411119067856896], [177477040476424531639, [21910745737830189094, -19719671164047170182, 1287500851670490463899, -712847483904978834181, 930844056525916510300, 693431187603628396383, 1512084908640703382669, -911024161947010778682, -792465687821571875856; -33109571337165617144, 81069759229971699715, -19719671164047170179, 1442000953870949319567, -792209177885557940056, 1039370875549803327301, -64055118403928298688, 780984002877019276629, -1016844948769716436914; -35273595607568552744, -33109571337165617144, 81069759229971699715, -19719671164047170179, 1442000953870949319567, -792209177885557940056, -135005058580502618314, 1039370875549803327301, 780984002877019276629; 29184271757796960082, -35273595607568552744, -33109571337165617144, 81069759229971699715, -19719671164047170179, 1442000953870949319567, 51377208932095274579, -792209177885557940056, 1039370875549803327301; 36175606341295605667, 29184271757796960082, -35273595607568552744, -33109571337165617144, 81069759229971699715, -19719671164047170179, 134980717017413185626, 1442000953870949319567, -792209177885557940056; -26453897993526368625, 36175606341295605667, 29184271757796960082, -35273595607568552744, -33109571337165617144, 81069759229971699715, -130861728047398724431, -19719671164047170179, 1442000953870949319567; 19719671164047170207, 1, 51500034066819618556, -26453897993526368625, 36175606341295605667, 29184271757796960082, -411922019871207555460, -35273595607568552744, -33109571337165617144; 51500034066819618556, -26453897993526368625, 36175606341295605667, 29184271757796960082, -35273595607568552744, -33109571337165617144, 154500102200458855667, 81069759229971699715, -19719671164047170179; 1, 51500034066819618556, -26453897993526368625, 36175606341295605667, 29184271757796960082, -35273595607568552744, -19719671164047170204, -33109571337165617144, 81069759229971699715]], []], [-1.52108906102463, 0.0357142857142891, 1.51215816755093, -1.07687916509103 + 1.07249734479445*I, 1.06795059501360 + 1.07249966548642*I, -0.00446312604286801 + 1.51674187809378*I], [1, y, y^2, y^3, y^4, y^5, y^8 - 25, y^6, y^7], [1, 0, 0, 0, 0, 0, 0, 0, 25; 0, 1, 0, 0, 0, 0, 0, 0, 0; 0, 0, 1, 0, 0, 0, 0, 0, 0; 0, 0, 0, 1, 0, 0, 0, 0, 0; 0, 0, 0, 0, 1, 0, 0, 0, 0; 0, 0, 0, 0, 0, 1, 0, 0, 0; 0, 0, 0, 0, 0, 0, 0, 0, 1; 0, 0, 0, 0, 0, 0, 1, 0, 0; 0, 0, 0, 0, 0, 0, 0, 1, 0], [1, 0, 0, 0, 0, 0, 0, 0, 0, 0, 0, 0, 0, 0, 0, -1, 0, 25, 0, 0, 0, 0, 0, 0, 0, 25, -1, 0, 0, 0, 0, 0, 25, 0, -1, 0, 0, 0, 0, 0, 25, -1, 0, 0, 0, 0, 0, 0, 25, -1, 0, 0, 0, 0, 0, -1, 0, 0, 0, 0, 75, 0, 0, 0, 0, 25, -1, 0, 0, 0, 0, 0, 0, 25, -1, 0, 0, 0, 0, 0, 0; 0, 1, 0, 0, 0, 0, 0, 0, 0, 1, 0, 0, 0, 0, 0, 3, 0, 0, 0, 0, 0, 0, 0, 0, -1, 0, 28, 0, 0, 0, 0, 0, 0, 0, 28, -1, 0, 0, 0, 0, 0, 28, 0, -1, 0, 0, 0, 0, 0, 28, -1, 0, 0, 0, 0, 3, -1, 0, 0, 0, 0, 0, 0, 0, 0, 0, 28, -1, 0, 0, 0, 0, 0, 0, 28, -1, 0, 0, 0, 0, 0; 0, 0, 1, 0, 0, 0, 0, 0, 0, 0, 1, 0, 0, 0, 0, 0, 0, 0, 1, 0, 0, 0, 0, 0, 3, 0, 0, 0, 0, 0, 0, 0, 0, -1, 0, 28, 0, 0, 0, 0, 0, 0, 0, 28, -1, 0, 0, 0, 0, 0, 28, 0, -1, 0, 0, 0, 3, -1, 0, 0, 0, 0, 0, 0, 0, 0, 0, 28, -1, 0, 0, 0, 0, 0, 0, 28, -1, 0, 0, 0, 0; 0, 0, 0, 1, 0, 0, 0, 0, 0, 0, 0, 1, 0, 0, 0, 0, 0, 0, 0, 1, 0, 0, 0, 0, 0, 0, 0, 1, 0, 0, 0, 0, 0, 3, 0, 0, 0, 0, 0, 0, 0, 0, -1, 0, 28, 0, 0, 0, 0, 0, 0, 0, 28, -1, 0, 0, 0, 3, -1, 0, 0, 0, 0, 0, 0, 0, 0, 0, 28, 0, -1, 0, 0, 0, 0, 0, 28, -1, 0, 0, 0; 0, 0, 0, 0, 1, 0, 0, 0, 0, 0, 0, 0, 1, 0, 0, 0, 0, 0, 0, 0, 1, 0, 0, 0, 0, 0, 0, 0, 1, 0, 0, 0, 0, 0, 0, 0, 1, 0, 0, 0, 0, 0, 3, 0, 0, 0, 0, 0, 0, 0, 0, -1, 0, 28, 0, 0, 0, 0, 3, -1, 0, 0, 0, 0, 0, 0, 0, 0, 0, 0, 28, -1, 0, 0, 0, 0, 0, 28, 0, -1, 0; 0, 0, 0, 0, 0, 1, 0, 0, 0, 0, 0, 0, 0, 1, 0, 0, 0, 0, 0, 0, 0, 1, 0, 0, 0, 0, 0, 0, 0, 1, 0, 0, 0, 0, 0, 0, 0, 1, 0, 0, 0, 0, 0, 0, 0, 1, 0, 0, 0, 0, 0, 3, 0, 0, 0, 0, 0, 0, 0, 3, 0, -1, 0, 0, 0, 0, 0, 0, 0, -1, 0, 28, 0, 0, 0, 0, 0, 0, 0, 28, -1; 0, 0, 0, 0, 0, 0, 1, 0, 0, 0, 0, 0, 0, 0, 0, 0, 0, 1, 0, 0, 0, 0, 0, 0, 0, 1, 0, 0, 0, 0, 0, 0, 1, 0, 0, 0, 0, 0, 0, 0, 1, 0, 0, 0, 0, 0, 0, 0, 1, 0, 0, 0, 0, 0, 1, 0, 0, 0, 0, 0, -22, 0, 0, 0, 0, 1, 0, 0, 0, 0, 0, 0, 0, 1, 0, 0, 0, 0, 0, 0, 0; 0, 0, 0, 0, 0, 0, 0, 1, 0, 0, 0, 0, 0, 0, 1, 0, 0, 0, 0, 0, 0, 0, 1, 0, 0, 0, 0, 0, 0, 0, 1, 0, 0, 0, 0, 0, 0, 0, 1, 0, 0, 0, 0, 0, 0, 0, 1, 0, 0, 0, 0, 0, 0, 0, 0, 0, 0, 0, 0, 0, 0, 3, -1, 1, 0, 0, 0, 0, 0, 3, 0, 0, 0, 0, 0, 0, 0, 0, -1, 0, 28; 0, 0, 0, 0, 0, 0, 0, 0, 1, 0, 0, 0, 0, 0, 0, 0, 1, 0, 0, 0, 0, 0, 0, 1, 0, 0, 0, 0, 0, 0, 0, 1, 0, 0, 0, 0, 0, 0, 0, 1, 0, 0, 0, 0, 0, 0, 0, 1, 0, 0, 0, 0, 0, 0, 0, 0, 0, 0, 0, 0, -1, 0, 3, 0, 1, 0, 0, 0, 0, 0, 0, 0, 1, 0, 0, 0, 0, 0, 3, 0, 0]]'
p1
tp2
Rp3
.