csage.libs.pari.gen_py
pari
p0
(S'[y^15 - 5*y^7 + 6*y^6 + 2*y^5 + 4*y^4 + y^3 - 3*y^2 - 2*y + 1, [3, 6], 1943858942171037749410480477, 1, [[1, -1.32594934292459, 0.754176624722585, 1.75814166000216, -2.33120677884822, -0.322959006000537, 3.09106209663516, -4.09859175597250, 0.812350514347198, 5.43452504574790, -1.04387338772407, -5.12876928279355, 3.87135591111823, 7.19158258678955, -6.39737434826977; 1, 0.369787478556160, -2.70425597941962, 0.136742779296922, 0.0505657675669704, -3.60874442280715, 0.0186985876898468, 0.00691450359438971, -2.44596828134667, 0.00255689684963688, -0.301523948075688, 1.90543395182648, -1.04844263878113, -0.155150876932908, -1.87312861147962; 1, 0.685983591548142, -1.45776081574077, 0.470573487873289, 0.322805691298655, 0.332694219831584, 0.221439407489232, 0.151903800059756, 2.61005519320311, 0.104203514334802, 4.92990278348136, -0.718973134557023, 6.97120899949561, 2.32547815548976, 4.51931145882458; 1, -0.640688441688515 + 0.321608582756577*I, 1.24668473931884 + 0.625802630526481*I, 0.307049598810564 - 0.412101803439926*I, -0.0641876520272801 + 0.362778648572394*I, -1.40927864619546 - 2.18615980913238*I, -0.0755484402687109 - 0.253071386830678*I, 0.129792942522614 + 0.137842885660209*I, 1.55141552923011 + 5.16773953429735*I, -0.127488293187237 - 0.0465718193149835*I, 1.46245283668216 - 5.85306475480910*I, 3.75262155821625 + 2.80079913671238*I, -4.53834291316748 + 5.64800928965237*I, -4.38288954849221 + 4.11340298695703*I, 4.67726494089306 + 0.801146305721199*I; 1, 1.13447479304245 + 0.338896249991338*I, -0.809250277588707 + 0.241743479944380*I, 1.17218238779052 + 0.768938506143571*I, 1.06922099559066 + 1.26958956814770*I, 1.21280417590693 + 0.149518476556119*I, 0.782745124015977 + 1.80267234839089*I, 0.277085713740262 + 2.31035572659212*I, 1.61405333453386 - 0.563451589817635*I, -0.468624134137580 + 2.71494364409279*I, 0.766408462593578 - 1.23742218187426*I, -2.47378094100692 + 3.01344517042768*I, 0.358785111441604 - 0.756616236830131*I, -2.79382104054561 + 2.80886127434373*I, -2.64185355790019 + 1.33741899929928*I; 1, -0.969313247538613 + 0.883352907435242*I, 0.563593360182707 + 0.513612946684461*I, 0.159255812779559 - 1.71249135085746*I, 1.35836544466289 + 1.80061963792622*I, 0.382567423177153 - 1.09255063959494*I, -2.90726421285753 - 0.545448403917539*I, 3.29987314907420 - 2.03942993134407*I, -0.722921396289059 + 0.998200397526051*I, -1.39707439923134 + 4.89179899028075*I, -0.0260384369223792 + 0.387660365302322*I, -1.78595620067573 - 4.36963171176009*I, 1.34235153301286 - 2.80095338786833*I, 0.238043099734372 + 4.30954270043649*I, -2.79119355295503 - 3.85217327603036*I; 1, -0.139866087156040 + 0.962718340953686*I, 0.147789195017715 + 1.01725422889398*I, -0.907264081672276 - 0.269303294765092*I, 0.386158698270330 - 0.835773373417380*I, 1.86517532502098 - 1.31793259612719*I, 0.750603849321304 + 0.488658412832739*I, -0.575424439904229 + 0.654273352373260*I, -2.62928978669806 - 1.40190292230384*I, -0.549398591463631 - 0.645482315855715*I, -3.05047557520670 + 3.18252062611983*I, -0.0191262344906533 + 1.89655181037217*I, 2.92086190062747 + 1.40074538183650*I, -3.94238115155616 - 1.94487190114297*I, 0.934345576239667 - 5.88800228205815*I; 1, 0.797000257117035 + 1.02001170360216*I, -0.475641218215638 + 0.608732061204715*I, -0.405214465640763 + 1.62589918006662*I, -1.98139222584834 + 0.882518567136995*I, 1.61996137208852 - 0.0296559428880607*I, -2.47934938057676 - 1.31767573487290*I, -0.631997422679708 - 3.57915328499764*I, 0.608147723368359 - 1.57930413222273*I, 3.14707613131069 - 3.49723085618411*I, -1.81643308955196 - 1.70045727686304*I, 4.97983429902374 + 1.06114859858033*I, -3.10130803341488 + 0.902800964417081*I, 0.896199253557182 + 0.793613864544623*I, 0.715923071788037 - 1.05267165434334*I; 1, -0.0465181373661716 + 1.22918759868370*I, 0.0307442865039819 + 0.812381961977585*I, -1.50873821565379 - 0.114359035128726*I, 0.210752399343040 - 1.84920253503663*I, 1.62827495448993 - 0.862334169556997*I, 2.26321301445861 + 0.345075693208006*I, -0.529443216593956 + 2.76586109205370*I, -1.40962411724703 - 1.24631714581705*I, -3.37513344175707 - 0.779447742260404*I, -2.62816692143550 + 1.23342254500530*I, 0.517561751695366 - 2.43769758183163*I, -0.379408734415923 + 0.753608070123822*I, 4.30389445462922 - 0.849686741752115*I, 0.481109272396854 + 2.85431478974409*I], [1, -1.32594934292459, 0.754176624722585, 1.75814166000216, -2.33120677884822, -0.322959006000537, 3.09106209663516, -4.09859175597250, 0.812350514347198, 5.43452504574790, -1.04387338772407, -5.12876928279355, 3.87135591111823, 7.19158258678955, -6.39737434826977; 1, 0.369787478556160, -2.70425597941962, 0.136742779296922, 0.0505657675669704, -3.60874442280715, 0.0186985876898468, 0.00691450359438971, -2.44596828134667, 0.00255689684963688, -0.301523948075688, 1.90543395182648, -1.04844263878113, -0.155150876932908, -1.87312861147962; 1, 0.685983591548142, -1.45776081574077, 0.470573487873289, 0.322805691298655, 0.332694219831584, 0.221439407489232, 0.151903800059756, 2.61005519320311, 0.104203514334802, 4.92990278348136, -0.718973134557023, 6.97120899949561, 2.32547815548976, 4.51931145882458; 1, -0.319079858931938, 1.87248736984532, -0.105052204629362, 0.298590996545114, -3.59543845532785, -0.328619827099389, 0.267635828182823, 6.71915506352746, -0.174060112502221, -4.39061191812694, 6.55342069492863, 1.10966637648489, -0.269486561535180, 5.47841124661426; 1, -0.962297024445092, 0.620882108792360, 0.719151402250490, -0.426966300599674, 0.776881162936918, 0.177522946561967, -0.00804994313759458, -3.61632400506724, -0.0809164738722536, 7.31551759149126, 0.951822421503875, -10.1863522028199, -8.49629253544925, 3.87611863517186; 1, 1.47337104303379, -0.567506797644327, 1.94112089393409, 2.33881056373835, 1.36232265246305, 2.58541747240687, 2.58744144033238, 1.05060174471623, 2.24631950995521, -0.471013719280685, 0.539664229420754, -0.397831125388527, 0.0150402337981192, -1.30443455860091; 1, 0.795578543051113, -1.05099375753309, 0.403243881646949, -0.200368572557040, 1.06328569935081, -1.01992722437491, -2.03327001285186, 2.17750492435150, -3.18356777823037, 2.00383064446784, -5.48722611143460, 1.11540134827174, -5.60268231488934, -3.97927255719947; 1, -0.0859603401033718, 1.07720630686717, -1.55323553807790, 3.15898508258910, -0.709983216417782, -3.45271261677507, 1.26044321773013, 0.275279001236992, 3.49472459104941, 0.361621928379943, -6.15558791243583, -1.45860185485547, 4.54758580017086, -6.64336682898538; 1, -1.85266615497386, 0.0499804134982460, 1.87174716363702, -0.442254193263331, 1.47511806277209, -2.36181580893999, 5.33930308041826, -1.72112179381511, -6.28887338951209, -0.413698802224701, 2.58367551108436, 4.14330492088119, -4.07149960070212, 1.06097972307533; 1, 0.822852253797646, 1.16504342391169, -1.17656737643737, -0.449614675147050, 0.547242728893791, 1.23926226215404, 0.0788489124690319, -4.03119270900189, -1.19488090731935, 0.132045050913131, 1.87742557588152, 4.32160728246397, -5.88725305269913, -4.95365670581849; 1, -1.10258442810973, -0.869465033876263, -0.637960786907184, 1.22193207168771, 3.18310792114818, 0.261945436488565, -1.22969779227749, -1.22738686439422, 0.0960837243920841, -6.23299620132652, -1.91567804486282, 1.52011651879097, -1.99750925041319, 6.82234785829782; 1, 1.81701196071920, 0.133090842989077, 1.22068471442585, -1.09887365871134, 1.59030542920046, -3.79702511544966, -4.21115070767735, -0.971156408854370, -0.350154724873419, -3.51689036641500, 6.04098289760406, -2.19850706899780, 1.68981311810180, -0.336748582555299; 1, -0.223011446485126, -1.08437327942035, -2.03111364570738, -2.86391079298533, 1.64961731497658, -1.16167364570387, 2.94715586231794, 2.18745185559109, 6.64430698749479, -0.115975812688916, 3.91868570044341, -4.00410899783196, 0.102585389012559, 1.76859472613137; 1, 1.18266946131753, 0.843126248481567, -1.62309725078252, -1.63845013569359, 0.765940784932933, 2.60828870766661, 2.23641787545974, -2.65594126306408, -4.15458118401747, -1.39474437643020, -1.92013583013626, 0.374199335707899, 3.45420771287711, 3.33542406214094; 1, -1.27570573604987, -0.781637675473603, -1.39437918052506, 2.05995493437967, 2.49060912404693, 1.91813732125060, -3.29530430864766, -0.163306971429986, -2.59568569949666, -3.86158946644080, 2.95525933352699, -1.13301680453974, 5.15358119638134, -2.37320551734723], [1, -1, 1, 2, -2, 0, 3, -4, 1, 5, -1, -5, 4, 7, -6; 1, 0, -3, 0, 0, -4, 0, 0, -2, 0, 0, 2, -1, 0, -2; 1, 1, -1, 0, 0, 0, 0, 0, 3, 0, 5, -1, 7, 2, 5; 1, 0, 2, 0, 0, -4, 0, 0, 7, 0, -4, 7, 1, 0, 5; 1, -1, 1, 1, 0, 1, 0, 0, -4, 0, 7, 1, -10, -8, 4; 1, 1, -1, 2, 2, 1, 3, 3, 1, 2, 0, 1, 0, 0, -1; 1, 1, -1, 0, 0, 1, -1, -2, 2, -3, 2, -5, 1, -6, -4; 1, 0, 1, -2, 3, -1, -3, 1, 0, 3, 0, -6, -1, 5, -7; 1, -2, 0, 2, 0, 1, -2, 5, -2, -6, 0, 3, 4, -4, 1; 1, 1, 1, -1, 0, 1, 1, 0, -4, -1, 0, 2, 4, -6, -5; 1, -1, -1, -1, 1, 3, 0, -1, -1, 0, -6, -2, 2, -2, 7; 1, 2, 0, 1, -1, 2, -4, -4, -1, 0, -4, 6, -2, 2, 0; 1, 0, -1, -2, -3, 2, -1, 3, 2, 7, 0, 4, -4, 0, 2; 1, 1, 1, -2, -2, 1, 3, 2, -3, -4, -1, -2, 0, 3, 3; 1, -1, -1, -1, 2, 2, 2, -3, 0, -3, -4, 3, -1, 5, -2], [15, 0, -2, 0, 0, 7, 0, 0, -1, 0, -7, 6, 3, -2, -1; 0, 0, -15, 0, 0, 13, 0, 0, 9, 0, 1, 12, -7, -15, 17; -2, -15, 10, 0, 0, 11, 0, 0, 2, 0, -3, -3, -20, -12, 17; 0, 0, 0, 0, 0, -15, 0, 0, 28, 40, 24, -39, 1, 8, -31; 0, 0, 0, 0, 0, 0, 0, 40, -15, -54, 28, -20, 24, -59, 13; 7, 13, 11, -15, 0, 21, 0, 0, 15, 0, -39, -3, 43, 27, -20; 0, 0, 0, 0, 0, 0, 40, -54, 0, -20, -15, -44, 28, 28, -15; 0, 0, 0, 0, 40, 0, -54, -20, 0, -44, 0, -12, -15, -15, -32; -1, 9, 2, 28, -15, 15, 0, 0, -25, 0, 106, -14, -54, -54, 4; 0, 0, 0, 40, -54, 0, -20, -44, 0, -12, 0, 39, 40, -32, -5; -7, 1, -3, 24, 28, -39, -15, 0, 106, 0, -31, 29, 72, 54, 71; 6, 12, -3, -39, -20, -3, -44, -12, -14, 39, 29, 34, -154, -46, 84; 3, -7, -20, 1, 24, 43, 28, -15, -54, 40, 72, -154, 59, 38, -57; -2, -15, -12, 8, -59, 27, 28, -15, -54, -32, 54, -46, 38, 84, -62; -1, 17, 17, -31, 13, -20, -15, -32, 4, -5, 71, 84, -57, -62, 19], [16064949935297832639756037, 13147036210266683157666288, 10230510184560829281236657, 6853182453168419243089030, 14454049594402108027993681, 7105742830730251813584783, 9254761793302513540460489, 8632176319607183529825483, 10812965836908359327748845, 8336053517555053730918216, 2908314088713534805476291, 594983157760080416247073, 7083718141185402939784669, 9639349827246086744035485, 4170081041813699941749600; 0, 11, 0, 3, 5, 10, 10, 7, 5, 10, 1, 6, 9, 4, 9; 0, 0, 11, 10, 3, 4, 5, 10, 0, 7, 5, 5, 8, 2, 4; 0, 0, 0, 1, 0, 0, 0, 0, 0, 0, 0, 0, 0, 0, 0; 0, 0, 0, 0, 1, 0, 0, 0, 0, 0, 0, 0, 0, 0, 0; 0, 0, 0, 0, 0, 1, 0, 0, 0, 0, 0, 0, 0, 0, 0; 0, 0, 0, 0, 0, 0, 1, 0, 0, 0, 0, 0, 0, 0, 0; 0, 0, 0, 0, 0, 0, 0, 1, 0, 0, 0, 0, 0, 0, 0; 0, 0, 0, 0, 0, 0, 0, 0, 1, 0, 0, 0, 0, 0, 0; 0, 0, 0, 0, 0, 0, 0, 0, 0, 1, 0, 0, 0, 0, 0; 0, 0, 0, 0, 0, 0, 0, 0, 0, 0, 1, 0, 0, 0, 0; 0, 0, 0, 0, 0, 0, 0, 0, 0, 0, 0, 1, 0, 0, 0; 0, 0, 0, 0, 0, 0, 0, 0, 0, 0, 0, 0, 1, 0, 0; 0, 0, 0, 0, 0, 0, 0, 0, 0, 0, 0, 0, 0, 1, 0; 0, 0, 0, 0, 0, 0, 0, 0, 0, 0, 0, 0, 0, 0, 1], [1110700220845740294169801, -244364735819133740672254, -30613706098214612623927, 76232727724200993320635, 59254872103976480496478, -74517882463954095208467, 47751219867661501451816, -373345839813234575185, 14959923083925018968508, -23705664902331456124708, 47297088266011066315955, 46607199942742408878689, -7713945767832469163273, 21656936914255011846065, 2303559915466870489555; -244364735819133740672254, -78088623455381408221608, -578890783275651654099374, -123593065526678127718079, -14925509625479922746963, 307292712237836981532385, 104252532582570335949398, -17951388603899002840828, 249419721315699840988086, -38012104921589872045199, 1639144715657000546759, 74016529128886249540945, -40805035477938849885435, -101958882869080115056129, -91932385318481598272143; -30613706098214612623927, -578890783275651654099374, 341176675899833660192078, -63559459365575482501969, -8653646981692445633655, 215589378179398335287507, -4335124002883913604142, -40046702902378156666870, 120192520706722685590219, 7309763603206566848988, 27184971094438052806008, -12722013777978559792450, -8209325858574596552297, -41780426892251124306803, 39680179156019882239228; 76232727724200993320635, -123593065526678127718079, -63559459365575482501969, -117683593405278575774030, -140010443532198327727117, -83527024698202760127527, 1081017525773178357756, 25275409387189685126767, 228681482656779619726958, 25343833056187810443174, 26010934125594933829598, -74694019468703382720298, -40786903475087546286078, -75108004938546718650710, -145146177189587110491972; 59254872103976480496478, -14925509625479922746963, -8653646981692445633655, -140010443532198327727117, -96256057329524894549272, -77154983144589859784085, -18726039049472133111629, 59374234220042394270432, 30134862431076458843022, -93249325509010197459801, 18557833558336192029760, -84169363795411665438156, 59375623459474533874989, -82941224209413506705191, 44998932196253899580956; -74517882463954095208467, 307292712237836981532385, 215589378179398335287507, -83527024698202760127527, -77154983144589859784085, 246359128585906722701242, -48067302913610511838454, 23976756335402556188224, 109925062393456315415619, -19301908403838920342107, -13603804548004126389575, -32854834904600529851505, 20412561620269021510748, 16979905794389543333944, -8982659929763671726593; 47751219867661501451816, 104252532582570335949398, -4335124002883913604142, 1081017525773178357756, -18726039049472133111629, -48067302913610511838454, 142509919783172338360072, -124349477051430657924105, 60653206732289236803109, -95970695042514895009096, -44001448436661818238396, -82589422712618477514073, -58166643256140307049828, -24969042306989637039812, 15725976519607744827711; -373345839813234575185, -17951388603899002840828, -40046702902378156666870, 25275409387189685126767, 59374234220042394270432, 23976756335402556188224, -124349477051430657924105, -37804051786374587959268, 34522119799007965675619, -82589422712618477514073, -6756502311232962458820, -24969042306989637039812, -44001448436661818238396, 15725976519607744827711, -58166643256140307049828; 14959923083925018968508, 249419721315699840988086, 120192520706722685590219, 228681482656779619726958, 30134862431076458843022, 109925062393456315415619, 60653206732289236803109, 34522119799007965675619, 50319979139450493761350, -39066194647479961906771, 38967867660575836250251, -16472578883139850430315, -88011993289872155134807, 34373167208404723985769, -1223598749122242214441; -23705664902331456124708, -38012104921589872045199, 7309763603206566848988, 25343833056187810443174, -93249325509010197459801, -19301908403838920342107, -95970695042514895009096, -82589422712618477514073, -39066194647479961906771, 54060291053118846368402, -18555306040306814739503, -2829329520699069911792, 79029333360108483408214, -67228002113005253837274, 18203504543511785548385; 47297088266011066315955, 1639144715657000546759, 27184971094438052806008, 26010934125594933829598, 18557833558336192029760, -13603804548004126389575, -44001448436661818238396, -6756502311232962458820, 38967867660575836250251, -18555306040306814739503, 50917436504777947731562, -9061358856864946787446, 33364689333879600045391, 62204952980173603786781, 85785835671341445867034; 46607199942742408878689, 74016529128886249540945, -12722013777978559792450, -74694019468703382720298, -84169363795411665438156, -32854834904600529851505, -82589422712618477514073, -24969042306989637039812, -16472578883139850430315, -2829329520699069911792, -9061358856864946787446, -67228002113005253837274, -18555306040306814739503, 18203504543511785548385, 79029333360108483408214; -7713945767832469163273, -40805035477938849885435, -8209325858574596552297, -40786903475087546286078, 59375623459474533874989, 20412561620269021510748, -58166643256140307049828, -44001448436661818238396, -88011993289872155134807, 79029333360108483408214, 33364689333879600045391, -18555306040306814739503, 85785835671341445867034, -9061358856864946787446, 62204952980173603786781; 21656936914255011846065, -101958882869080115056129, -41780426892251124306803, -75108004938546718650710, -82941224209413506705191, 16979905794389543333944, -24969042306989637039812, 15725976519607744827711, 34373167208404723985769, -67228002113005253837274, 62204952980173603786781, 18203504543511785548385, -9061358856864946787446, 79029333360108483408214, -18555306040306814739503; 2303559915466870489555, -91932385318481598272143, 39680179156019882239228, -145146177189587110491972, 44998932196253899580956, -8982659929763671726593, 15725976519607744827711, -58166643256140307049828, -1223598749122242214441, 18203504543511785548385, 85785835671341445867034, 79029333360108483408214, 62204952980173603786781, -18555306040306814739503, -9061358856864946787446], [16064949935297832639756037, [-4843488819986720866212495, 5833648537282078605483918, -1246695095011135898981489, -15940344402394477462133614, 26903224696420837376418609, -25842623114582777637856387, -35801299144788739369514437, 13738562565096229958624793, -9644802038286824303910078, 15997148027333502059042505, 27112719200257035870727214, 14099045977578221419242800, -91746968517437944251753407, -85289586173998893020128902, 16920626818946364520209656; -3326907236145829014680855, -12660652902553663206240756, -6314605808401169045061429, 11807869561384328354772891, -16722793823953488747300710, 572537046691837160071734, 30041928973859467364268772, -50856974468642214531976223, 23983551527553755862247687, 38114381329056962243266849, -17857412196329908656463057, 6206960324484033693585515, 31256963605938486561026602, 27071586356947244555212175, -43659344735829286917339413; -2794518244115081849972573, 2655512083301686413990059, 13143000701608121812046304, -10312642977854411788393634, 13503567085457984382567984, 14966066415142056263093945, -7523502747384940938858377, -5182188832045245383100514, 19553715686647681303538994, 13513906507462336629240481, 17890849205657249641483880, 18376197850677095025014306, -32081055350490686821583133, -32118234893347203482350684, 21832122317015972877503029; 3992968144425066360946676, -1145016923745898464622912, -8999669691637872648874829, -12506837829118749944137569, 20350375880421602190722625, 13968899964281033441063291, -28325547191475125194664001, 35632886163660331155433856, -3596242522448161975808617, -43323396078083404603787876, 8211088368577532718250306, 23372642875709757709402325, -28814148226695848073027925, -20955466777248760637256224, 23454643366005983113359752; 5744772263235777053268273, 4923014524839687204695463, 7560770294292464209807774, -1145016923745898464622911, -18083372921496948223858878, -1527071829313667117161370, 23462312573236153584529355, -28171732118040211932560813, -1707929605139047772101236, 38598857390319406711662281, -11363633385422415757178860, -36981598365948581277107020, -7871978941850104929075447, 38636559163990119189292704, -20403272460166744608163381; -5495526418590839655913507, -1784204380675879080490279, 10228064116816713848479546, 2175672197820626846536447, -5249986968163730585996383, 15324891014008052362104247, -486950729672763158870070, 10294044899452783439920411, -2466533852526448625499231, -1364943738933666020563047, 5676946782114449577818223, -36429231443025703877525569, 20107713586646787471367838, 2376238551462193545149633, -7352576944553384804323019; -2914281582328886773835252, 2632835570421225659461542, -2965971226659075556228424, 10345734543782972222313584, -7222924843219525414658066, 827920951309896364038771, -9746371320224776432405505, 14751569083341300975032658, -4953325508516986596476060, -30180465060551012363421024, 13087514137106594090525947, 30402864983346220822721203, 8564227977135442181561542, -54447218547296437473031688, 33394502487763995075920687; 2965971226659075556228424, -2914281582328886773835252, 776231306979707581645599, 2632835570421225659461542, 10345734543782972222313584, -4177094201537279014830461, -7222924843219525414658066, -9746371320224776432405505, 10949463861757414898336294, 14751569083341300975032658, 851329003773695618709500, -22261168325374950210716540, 15712988306992913672856982, 27754365897824101509063866, -37617501876551060244631718; -1938019454110792342593467, -790299028838448709691978, 8607463111405391049720237, 3240829706543354467560178, -6231722992908540212138342, -5893953541077667823555467, -205504717765102044496361, 2892009877626783837866594, 13137960389133183679260590, -7599690132311664222025295, 1326538049938647271806093, 3542000161138129407655259, 7705022021079466865772977, 1794533423913662901962352, 12849986888357877036336382; 153815073434913262103188, 2965971226659075556228425, -3111936692814551393806730, -8490816674707085053556561, 5744772263235777053268272, 8842286858627662935631227, 10499549617217885484416772, -4256953616560449858429641, -8041133491941845165635889, -18237187994931861485962066, -12236931638605930665294591, 8695932868569776960966161, -9453734404949374720487584, -2969254478025638505362912, 15363009620456209471894028; -3254897428402095595606556, 930046380414620843748787, 6584508166074369778565988, 1, -5576535092378198279721309, 1092908564916400427405461, 3111936692814551393806730, 153815073434913262103188, -14888248246359741282540004, 2965971226659075556228425, 6088693935900580836334408, -6254114501951211298002590, -23241466990407151868992797, -9435863337251865605777311, -17634825871351483769274078; 3111936692814551393806730, 153815073434913262103188, 5576535092378198279721309, 2965971226659075556228425, -8490816674707085053556561, -2464598399563646885914580, 5744772263235777053268272, 10499549617217885484416772, -6506581472792819123470094, -4256953616560449858429641, 2003053496416785889297402, -7084117810175464926519447, 10323497315701780848696996, -3720319352839090338992125, -6517714331438819497129464; 930046380414620843748787, 1, 3254897428402095595606556, -5576535092378198279721309, 3111936692814551393806730, 4259657118086895026708219, 153815073434913262103188, 2965971226659075556228425, -5491599601157969351160527, -8490816674707085053556561, -22402802792848731904854779, 5670058953965598465915396, 512158843522382556613098, 1438366183824973952621269, -6099619852945233084820453; -5576535092378198279721309, 3111936692814551393806730, -1, 153815073434913262103188, 2965971226659075556228425, -6506581472792819123470095, -8490816674707085053556561, 5744772263235777053268272, 5114990189231337283104131, 10499549617217885484416772, 7511341162477618554571759, -3326907236145829014680856, -11704618648939703078470626, -5037224276707927679353755, -7293800948800502729416033; 1, -5576535092378198279721309, -930046380414620843748787, 3111936692814551393806730, 153815073434913262103188, 4184943808816716439355344, 2965971226659075556228425, -8490816674707085053556561, 1004759689684799431101663, 5744772263235777053268272, -8746497029560064946767084, 5384559427986548201312642, -13714331007655982231326740, -1538066632201884577408712, 1544070505355070031469218]], []], [-1.32594934292459, 0.369787478556160, 0.685983591548142, -0.640688441688515 + 0.321608582756577*I, 1.13447479304245 + 0.338896249991338*I, -0.969313247538613 + 0.883352907435242*I, -0.139866087156040 + 0.962718340953686*I, 0.797000257117035 + 1.02001170360216*I, -0.0465181373661716 + 1.22918759868370*I], [1, y, y^14 - 5*y^6 + 6*y^5 + 2*y^4 + 4*y^3 + y^2 - 3*y - 2, y^2, y^3, y^14 + y^13 - 5*y^6 + y^5 + 8*y^4 + 6*y^3 + 5*y^2 - 2*y - 4, y^4, y^5, 2*y^14 + y^12 - 10*y^6 + 12*y^5 - y^4 + 14*y^3 + 4*y^2 - 2*y - 3, y^6, y^14 + y^13 + y^11 - 5*y^6 + y^5 + 8*y^4 + y^3 + 11*y^2 - 2, -y^13 + y^7 + 5*y^5 - 6*y^4 - 2*y^3 - 4*y^2 - y + 3, 2*y^14 + y^13 + y^12 + y^10 - 10*y^6 + 7*y^5 + 5*y^4 + 16*y^3 + 4*y^2 + 4*y - 4, y^12 + y^8 - 4*y^4 + 6*y^3 + y^2 + 4*y - 2, 2*y^14 + y^13 + y^12 + y^9 - 10*y^6 + 8*y^5 + 5*y^4 + 15*y^3 + 8*y^2 - 5*y - 2], [1, 0, 0, 0, 0, 0, 0, -1, 3, -3, -1, -2, -1, 2, 2; 0, 1, 0, 0, 0, 0, 0, 0, 0, 4, -5, -2, -4, -1, 3; 0, 0, 0, 0, 0, 0, 0, -1, 2, 1, 1, 0, -2, -1, 1; 0, 0, 1, 0, 0, 0, 0, 0, 1, 0, 4, -6, -2, -4, -1; 0, 0, 0, 1, 0, 0, 0, 0, 0, 1, 0, 5, -6, -2, -4; 0, 0, 0, 0, 0, 0, 0, 1, 0, -1, -1, -1, 0, 1, 0; 0, 0, 0, 0, 1, 0, 0, 0, -1, 0, 0, 0, 5, -6, -2; 0, 0, 0, 0, 0, 1, 0, 0, 0, -1, 0, 0, 0, 5, -6; 0, 0, 0, 0, 0, 0, 0, 0, -1, -1, -1, 0, 1, 0, 0; 0, 0, 0, 0, 0, 0, 1, 0, 0, 0, 0, 0, 0, 0, 5; 0, 0, 0, 0, 0, 0, 0, 0, 0, 0, 0, 1, 0, 0, 0; 0, 0, 0, 0, 0, 0, 0, 1, 0, 0, 0, 0, 0, 0, 0; 0, 0, 0, 0, 0, 0, 0, 0, 0, 0, 1, 0, 0, 0, 0; 0, 0, 0, 0, 0, 0, 0, 0, 1, 0, 0, 0, 0, 0, 0; 0, 0, 0, 0, 0, 0, 0, 0, 0, 1, 0, 0, 0, 0, 0], [1, 0, 0, 0, 0, 0, 0, 0, 0, 0, 0, 0, 0, 0, 0, 0, 0, -1, 0, 0, 1, 0, 0, 0, -1, 0, 1, 0, -1, 1, 0, -1, 1, 0, 0, 1, 0, 0, 0, 0, 0, 0, -2, -1, 1, 0, 0, 0, 0, 0, -1, 0, -1, 2, 3, 1, -2, 0, 1, -2, 0, 0, 0, 0, 0, 0, -1, 3, -1, -3, 2, -1, 1, -4, 1, 0, 1, 1, -1, 0, 1, 0, 0, 2, 0, -3, -1, 4, 3, -1, 0, 0, 0, 0, -1, 0, 3, -3, 0, -1, -1, -2, 2, 2, 0, 0, 0, 0, -1, 3, 0, -3, -1, 0, -2, 0, -1, -2, 0, -2, 0, 0, 0, 2, -1, 2, 0, 0, -3, 0, 9, -2, -5, -6, 1, 0, -1, 0, 3, -3, 0, -1, -2, 0, -1, 0, 2, 4, -2, -1, 0, 0, 0, 1, 2, -3, -1, 0, 9, 0, -4, 4, 7, 4, 5, 0, 1, 0, -2, -1, -1, -2, -1, -2, 2, 4, 3, -12, -6, 7, 0, 0, -2, 0, 1, 4, 2, -2, -5, 4, 7, -12, 3, 4, -6, 0, -1, -1, 1, -4, 3, 2, 0, -6, -2, 4, -6, 4, 6, -5, 0, 1, 1, -2, 1, -1, 0, -2, 1, -1, 5, 7, -6, -5, 6; 0, 1, 0, 0, 0, 0, 0, 0, 0, 0, 0, 0, 0, 0, 0, 1, 0, 0, 0, 0, 1, 0, 0, 0, 0, -1, 0, 0, 1, -1, 0, 0, 0, -1, 0, 0, 0, 0, 0, 0, -1, 0, 0, 1, 0, 0, 0, -1, 0, 0, 1, 0, 0, 1, 0, 0, 2, -1, -2, 1, 0, 0, 0, 0, 0, -1, 0, 0, 2, 4, 2, -4, 0, 0, -3, 0, 1, 0, 1, -1, 0, 0, 0, -1, 0, 2, 0, -1, -2, 0, 0, 0, 0, 0, 0, 0, 0, 4, -1, -5, 2, -2, 2, -5, 2, 0, 0, 0, 0, 0, 0, 4, -5, 0, -2, -1, -4, 2, 3, -2, 0, 0, 0, 1, 2, -1, -1, 0, 3, 0, -2, 1, 2, 1, 0, 0, 0, 0, 0, 4, 0, -5, -2, 0, -4, 0, -1, -1, -2, -4, 0, -1, -1, 0, 2, 2, 2, -1, -2, 0, 0, -3, 1, 2, -2, 0, 0, 0, 2, -4, 0, -2, -4, 1, -1, -3, 3, 5, -1, 0, 0, 0, 0, -1, 0, -1, 2, 2, 2, -1, 1, 5, -1, -4, 6, 0, 1, 1, -2, 0, -2, -5, 3, 1, -2, 2, -1, -4, -4, 6, 0, -1, 0, 1, -3, 0, 2, -2, 0, -4, -2, 0, 6, 6, -1; 0, 0, 1, 0, 0, 0, 0, 0, 0, 0, 0, 0, 0, 0, 0, 0, 0, 0, 0, 0, 1, 0, 0, -1, -1, -1, 1, 0, 0, 1, 1, 0, -1, 0, 0, -1, 0, 0, -1, 0, 0, 1, -1, -1, 0, 0, 0, 0, 0, 0, 0, 0, -1, 1, 2, -1, 1, -1, 2, 0, 0, 0, 0, 0, 0, 0, -1, 2, 0, 1, 1, 1, -1, -1, 0, 0, 1, -1, 0, 0, -3, 0, 0, -1, 0, -1, 1, 2, 2, -3, 0, 0, 0, 0, -1, 0, 2, 1, 0, 1, 0, 0, 1, 0, 1, 0, 0, 0, -1, 2, 0, 1, 1, 0, 0, 0, -2, -1, 1, 0, 0, -1, -1, 1, 0, -1, 0, 0, -3, 0, 4, 0, -6, -3, 1, 0, -1, 0, 2, 1, 0, 1, 0, 0, -2, 0, -1, 3, 0, -2, 0, -1, 0, -1, 1, -1, 0, 0, 4, 0, -7, 2, 3, 3, 3, 0, 1, 1, 1, 1, 1, 0, -2, 0, -1, 2, 1, -4, -6, 4, 0, 0, -1, -1, -1, 2, 1, -1, -6, 3, 3, -4, -4, -1, -6, 0, 0, -1, 2, -1, 2, 0, 1, -3, 0, 3, -6, -1, 1, -3, 0, 1, 0, 0, 0, -3, 1, 0, 1, -2, 3, 4, -6, -3, 1; 0, 0, 0, 1, 0, 0, 0, 0, 0, 0, 0, 0, 0, 0, 0, 0, 1, 0, 0, 0, 0, 0, 0, 0, 0, 0, 1, -1, 0, 0, 0, 0, 0, 0, -1, 0, 0, 0, 0, 0, 1, 0, 0, 0, 0, 1, 0, 0, 0, 0, 1, 0, 0, 0, 1, -1, 0, 0, 1, -2, 0, 0, -1, 0, 0, 1, 0, 1, 1, 0, 0, 2, -1, -3, 2, 0, 0, 0, 1, 1, 0, -1, 0, 1, 0, -1, 0, 0, 0, 1, 0, 0, 0, 0, 0, -1, 1, 0, 2, 4, 2, -5, 0, 1, -3, 0, 0, 0, 0, 1, 0, 0, 4, -1, -6, 2, -2, 2, -5, 1, 0, 0, 0, 0, 1, 1, 2, -1, -2, 0, -1, -1, 1, 0, -2, 0, 0, 0, 1, 0, 0, 4, -6, 0, -2, -1, -4, 3, 2, -3, 0, 0, 1, -1, 0, -1, 2, 2, -1, -1, 1, 2, -1, -1, -1, 0, 1, 0, 0, 2, 0, -5, -2, -1, -4, 2, -1, -2, -3, -4, 0, -1, 0, 0, -1, 0, 0, 2, 1, 3, -1, -2, 0, 5, -3, 0, 0, 0, 1, -3, 0, 1, -5, 0, 2, -1, -3, 5, -2, -4, 0, 0, 0, -2, 2, 1, -3, 1, -2, -3, -1, -4, -3, -4, 4; 0, 0, 0, 0, 1, 0, 0, 0, 0, 0, 0, 0, 0, 0, 0, 0, 0, 0, 1, 0, 0, 0, 0, 0, 0, 0, 0, 1, 0, 0, 0, 0, 0, 0, 0, 0, -1, 0, 0, 0, 0, 0, -1, -1, 0, 0, 1, 0, 0, 0, 0, 0, 0, 0, 0, 0, 1, -1, 0, 1, 1, 0, 0, 0, 0, 1, 0, 0, 0, 1, -1, 0, 0, 2, -2, 0, 0, 0, 0, 1, 0, 1, -1, 0, 0, -1, 0, 1, 1, -1, 0, 0, -1, 0, 0, 1, 0, 1, 1, 0, 0, 3, -1, -3, 2, 0, 0, 0, 0, 0, -1, 1, 0, 2, 5, 2, -5, 0, 1, -3, 0, 0, 0, 0, 0, 0, 1, 2, -1, -1, 2, 0, 0, 0, 1, 0, 0, 0, 0, 1, 0, 0, 5, -1, -6, 2, -2, 2, -5, 2, 0, 0, 0, 0, -1, -1, 0, 2, 2, 2, 1, 0, 1, 2, 3, 0, 0, 0, 1, 0, 0, 3, -5, 0, -2, 0, -4, 1, 1, -2, 0, 1, -1, -1, 0, 1, -1, 0, 0, 2, 1, 1, -1, 0, 3, 0, 0, -1, 0, 2, 1, -3, 1, 0, -5, 2, 1, 0, -4, -2, 0, 0, 0, 1, -2, -1, 2, -3, 1, 2, 3, -2, 3, -2, -2; 0, 0, 0, 0, 0, 1, 0, 0, 0, 0, 0, 0, 0, 0, 0, 0, 0, 0, 0, 0, 0, 0, 0, 1, 1, 0, 0, 0, 0, 0, 0, 0, -1, 0, 0, -1, 0, 0, -1, 0, 0, 0, 0, 0, -1, 0, 0, 0, 0, 0, 0, 0, 1, 0, 0, 1, -1, 0, -1, 0, 0, 0, 0, 0, 0, 0, 1, 0, 0, -1, 0, -1, 1, 0, 0, 1, 0, -1, 0, 0, -1, 0, 0, -1, 0, 0, 2, -2, -1, 0, 0, 0, 0, 0, 1, 0, 0, -1, 0, -1, 0, -1, 0, 0, -1, 0, 0, 0, 1, 0, 0, -1, -1, 0, -1, 0, 0, 1, -1, -1, 0, 1, -1, 0, 0, -1, 0, 0, 0, 0, -2, 0, 3, 3, -2, 0, 1, 0, 0, -1, 0, -1, -1, 0, 0, 0, 1, -1, -1, 1, 0, 0, 0, 1, 0, 0, 0, 0, -2, 0, 4, -1, -3, -3, 1, 0, 0, 0, -1, -1, 2, -1, 0, 0, 1, -1, -2, 1, 3, -2, 0, 0, 0, 0, 1, -2, 0, 1, 3, -1, -3, 1, 5, 2, 1, 0, 0, 0, -1, 0, -1, 0, -1, 3, -1, -3, 3, 2, 2, 1, 0, 0, -1, 0, 0, 0, -1, -1, -2, 1, 1, -2, 1, 1, -4; 0, 0, 0, 0, 0, 0, 1, 0, 0, 0, 0, 0, 0, 0, 0, 0, 0, 0, 0, 1, 0, 0, 0, 0, 0, 0, -1, 0, 0, -1, 0, 0, 0, 0, 0, 0, 0, -1, 0, 0, 0, 0, 0, 0, 0, 0, 0, 0, 1, 0, 0, 0, 0, 0, -1, 0, 0, 1, -1, 0, 0, 1, 0, 0, 0, 0, 0, -1, 0, 0, 0, 0, -1, 0, 0, 0, 0, 0, 0, 0, 0, 1, 1, 0, -1, 0, 0, 1, 0, 0, 1, 0, 0, 0, 0, 1, -1, 0, 0, 0, -1, 0, 0, 1, -2, 0, 0, -1, 0, -1, 1, 0, 0, 1, 0, 0, 3, -1, -3, 2, 0, 0, 0, 0, 0, 0, 0, 1, 0, 2, 1, -1, -2, 0, 0, 0, 0, 0, -1, 0, -1, 0, 0, 2, 5, 2, -5, -1, 1, -3, 0, 0, 0, 0, 0, 0, -1, 0, 1, 2, -2, 2, -1, 0, 1, 0, -1, 0, 0, 0, 0, 0, 3, -1, -5, 2, -2, 2, -5, 2, 0, 0, 0, 1, -1, 1, 0, -1, -2, -1, -1, 2, 0, -1, -1, 0, 0, 0, -1, 0, 0, 1, -3, 0, 1, 0, -5, -1, 4, -3, 0, -1, 0, 0, 0, 0, -2, 2, 0, -3, 1, 2, -1, -3, 0; 0, 0, 0, 0, 0, 0, 0, 1, 0, 0, 0, 0, 0, 0, 0, 0, 0, 0, 0, 0, 0, 1, 0, 0, 0, 0, 0, 0, 0, 0, 0, 0, 0, 0, 0, 0, 0, 0, 0, -1, 0, 0, 1, 0, 0, 0, 0, 0, 0, 1, 0, 0, 0, 0, 0, 0, -1, 0, 0, -1, 0, 0, 0, 1, 0, 0, 0, 0, 0, -1, 0, 0, 1, -1, 0, 0, 0, 0, 0, 0, 0, 0, 1, 0, 1, 1, -1, -1, 0, 0, 0, 1, 0, 0, 0, 0, 0, -1, 0, 0, 0, 0, -1, 0, 0, 1, 0, 0, 0, 0, 1, -1, 0, 0, 0, -1, 0, 0, 1, -2, 0, 0, 0, 0, 0, 0, 0, 0, 1, 1, -2, 2, 0, 0, 1, 0, 0, -1, 0, -1, 1, 0, 0, 1, 0, 0, 3, -1, -3, 2, 0, 0, 0, 0, 0, 1, 0, -1, -2, 0, -1, 1, -1, 0, -2, 0, 0, 0, -1, 0, -1, 0, 0, 2, 3, 1, -4, 1, 1, -3, 0, 0, 1, 0, 1, -1, -1, 0, 0, -1, -1, 1, -2, 0, -1, 0, 0, 0, 0, -1, 0, 0, 1, 0, -3, 0, 1, 0, -5, 4, 0, 0, 0, -1, 0, 0, 0, -2, 1, 2, -2, -3, -1, 4, -2; 0, 0, 0, 0, 0, 0, 0, 0, 1, 0, 0, 0, 0, 0, 0, 0, 0, 0, 0, 0, 0, 0, 0, 0, 0, 1, -1, 0, -1, -1, 0, 0, 0, 0, 0, -1, 0, 0, 0, 0, 0, 1, 0, 0, 0, 0, 0, 0, 0, 0, 0, 0, 0, 0, -1, 0, -1, 1, -1, 0, 0, 0, 0, 0, 0, 0, 0, -1, 0, -1, 0, -1, 0, 0, 0, 0, 0, -1, 0, 0, 0, 0, 0, 0, 0, 0, -1, 0, 1, -1, 0, 0, 0, 0, 0, 0, -1, -1, 0, -1, 0, 0, 0, 0, -1, 0, 0, 0, 0, -1, 0, -1, -1, 0, 0, 0, 1, 0, -1, 0, 1, 0, 0, 0, 0, 0, 0, 0, 0, 0, 0, 1, -2, -3, 2, 0, 0, 0, -1, -1, 0, -1, 0, 0, 1, 0, 0, -1, 0, 1, 0, 1, 0, 0, 0, 0, 0, 0, 0, 0, -2, 0, 4, 1, -3, 0, -1, 1, -1, -1, -1, 0, 1, 1, 0, 0, 2, 0, 0, 2, 0, 0, 0, 1, 0, 0, 0, 0, -2, -1, 4, 0, -4, -3, 0, 0, -1, 0, -1, 0, 1, 0, -1, -3, 0, 1, 0, -3, -2, 2, 0, -1, 0, 0, 0, -1, -1, 0, 2, 1, -3, 2, 0, 2, 4; 0, 0, 0, 0, 0, 0, 0, 0, 0, 1, 0, 0, 0, 0, 0, 0, 0, 0, 0, 0, 0, 0, 1, 0, 0, 0, 0, 0, 0, 1, 0, 0, 0, 0, 0, 0, 0, 0, 0, 0, 0, -1, 0, 0, 0, 0, 0, 0, 0, 0, 0, 1, 0, 0, 0, 0, 0, 0, 1, 0, 0, 0, 0, 0, 1, 0, 0, 0, 0, 0, 0, 0, 0, 0, -1, 0, 0, 0, 0, 0, 0, 0, 0, 0, 1, 0, 1, 0, -1, 0, 0, 0, 0, 1, 0, 0, 0, 0, 0, 0, 0, 0, 1, -1, 0, 0, 1, 0, 0, 0, 0, 0, 0, 0, 0, 0, 0, -1, 0, 1, 0, 0, 0, 0, 0, 0, 0, 0, 0, 0, 0, 1, 0, 2, -1, 1, 0, 0, 0, 0, 1, 0, 0, 0, 0, -1, 0, 0, 2, -2, 0, 0, 0, 0, 0, 0, 0, 0, 0, -1, 0, 0, -1, 2, 2, 0, 0, -1, 0, 0, 1, 0, 0, 1, 0, 0, 1, -1, -2, 1, 0, 0, 0, 0, 0, 0, 1, -1, 0, 0, -1, -1, 2, 1, 1, 0, 0, 0, 1, 0, -1, -1, 0, 2, 2, 2, -2, 1, 0, -4, 0, 1, 0, 0, -1, 0, 0, 1, -1, -2, 2, 1, 1, -4, 0; 0, 0, 0, 0, 0, 0, 0, 0, 0, 0, 1, 0, 0, 0, 0, 0, 0, 0, 0, 0, 0, 0, 0, 0, 0, 0, 0, 1, 0, 0, 0, 0, 0, 0, 0, 0, 0, 0, -1, 0, 0, 0, -1, -1, -1, 0, 0, 0, 0, 0, 0, 0, 0, 0, 0, 0, 0, 0, 0, 1, 0, 0, 0, 0, 0, 0, 0, 0, 0, 0, 0, 0, 0, 1, 0, 0, 0, 0, 0, 0, -1, 0, 0, 1, 0, 0, 1, 0, 1, 0, 0, 0, 0, 0, 0, 0, 0, 0, 0, 0, 0, 1, 0, 0, 0, 0, 0, 0, 0, 0, 0, 0, 0, 0, 1, 0, 0, 0, 0, 0, 0, 0, -1, 0, 0, 1, 0, 0, -1, 0, 1, -2, 1, 1, 1, 0, 0, 0, 0, 0, 0, 0, 1, 0, 0, 0, 0, 0, 0, 1, 1, 0, 0, 0, 0, 0, 0, 0, 1, 0, 1, 1, 2, -2, 4, 0, 0, 0, 0, 0, 1, 1, 0, -2, 0, 1, -1, -1, -1, -1, 0, 1, -1, 0, 0, 0, 0, 0, 1, 0, 2, -1, 6, 3, -1, 0, 0, -1, 0, 1, 1, 0, 0, 1, 0, -2, -1, 3, 3, 1, 0, 0, -1, 1, 0, 0, 0, 0, 1, 1, 4, -1, -1, 1, 2; 0, 0, 0, 0, 0, 0, 0, 0, 0, 0, 0, 1, 0, 0, 0, 0, 0, 0, 0, 0, 0, 0, 0, 0, 1, 0, 0, 0, 0, 0, 0, 0, 0, 0, 0, 0, 0, 0, 0, 0, 0, 0, 0, -1, 0, 0, 0, 0, 0, 0, 0, 0, 1, 0, 0, 0, 0, 0, 0, 1, 0, 0, 0, 0, 0, 0, 1, 0, 0, 0, 0, 0, 0, 1, 0, 0, 0, 0, 0, 0, 0, 0, 0, 0, 0, 0, 1, 0, 1, -1, 0, 0, 0, 0, 1, 0, 0, 0, 0, 0, 0, 0, 0, 0, -1, 0, 0, 0, 1, 0, 0, 0, 0, 0, 0, 0, 0, 1, -1, 0, 0, 0, 0, 0, 0, 0, 0, 0, 0, 0, 0, 0, -1, 1, 2, 0, 1, 0, 0, 0, 0, 0, 0, 0, 0, 0, 0, -1, 0, 1, 0, 0, 0, 0, 0, 0, 0, 0, 0, 0, -1, -1, 2, 0, 2, 1, 0, 0, 0, 0, 1, 0, 0, 0, 0, -1, 0, 0, 0, -1, 0, 0, 0, 0, 0, 0, 0, 1, -1, -1, 2, 0, 1, -2, 0, 0, 0, -1, 0, 1, 1, 0, -1, 1, 0, 0, 0, -2, 0, 1, 0, 0, 0, 1, 0, -1, -1, 0, 2, 1, 2, -1, 0, 1, -2; 0, 0, 0, 0, 0, 0, 0, 0, 0, 0, 0, 0, 1, 0, 0, 0, 0, 0, 0, 0, 0, 0, 0, 0, 0, 0, 0, 0, 0, 1, 0, 0, 0, 0, 0, 0, 0, 0, 0, 0, -1, 0, 0, 0, 0, 0, 0, 0, 0, 0, 0, 0, 0, 0, 0, 0, 0, 0, 1, 0, 0, 0, 0, 0, 0, 0, 0, 0, 0, 0, 0, 1, 0, 0, 0, 0, 0, 0, 0, 0, 0, 0, 0, -1, 0, 1, 0, 0, -1, -1, 0, 0, 0, 0, 0, 0, 0, 0, 0, 1, 0, 0, 0, 0, 0, 0, 0, 0, 0, 0, 0, 0, 1, 0, 0, 0, 0, 0, 0, 1, 0, 0, 0, 0, 0, -1, 0, 0, 2, 0, 0, 1, 1, 2, 1, 0, 0, 0, 0, 0, 0, 1, 0, 0, 0, 0, 0, 0, 1, 0, 0, 0, -1, 0, 0, 1, 0, 0, 0, 0, 1, -2, 1, 2, 2, 0, 0, 0, 0, 1, 0, 0, 0, 1, 0, -2, 0, 1, 1, 0, 1, 0, 0, 0, 0, 0, 0, 0, 1, 0, 1, 1, 2, -1, 3, 0, 0, 0, 1, 0, -1, 0, 0, 2, 1, 2, 1, -1, 0, 1, 0, 1, 0, 0, 0, -1, 0, 1, 1, 0, 2, 0, 3, 1, -2; 0, 0, 0, 0, 0, 0, 0, 0, 0, 0, 0, 0, 0, 1, 0, 0, 0, 0, 0, 0, 0, 0, 0, 0, 0, 0, 1, 0, 0, 0, 0, 0, 0, 0, 0, 0, 0, 0, 0, 0, 0, 0, 0, 0, -1, 0, 0, 0, 0, 0, 0, 0, 0, 0, 1, 0, 0, 0, 0, 0, 0, 0, 0, 0, 0, 0, 0, 1, 0, 0, 0, 0, 0, 0, 1, 0, 0, 0, 0, 0, 0, 0, 0, 0, 0, 0, 0, -1, 1, 1, 0, 0, 0, 0, 0, 0, 1, 0, 0, 0, 0, 0, 0, 1, 0, 0, 0, 0, 0, 1, 0, 0, 0, 0, 0, 0, 0, 0, 0, -1, 0, 0, 0, 0, 0, 0, 0, 0, 0, 0, -1, 0, 2, 0, 1, 0, 0, 0, 1, 0, 0, 0, 0, 0, 0, 0, 0, 1, -1, 0, 0, 0, 0, 0, 0, 0, 0, 0, -1, 0, 2, 0, 1, -2, -1, 0, 1, 0, 0, 0, 0, 0, 0, 0, 0, 0, 0, 0, 0, -1, 0, 0, 0, 0, 0, -1, 0, 0, 2, 1, 1, 0, 1, 2, 0, 1, 0, 0, 0, 0, 1, 1, 0, 0, -1, -2, 0, 2, 0, 1, 0, 0, -1, 0, 1, 1, 0, -1, 1, 0, -1, -1, 0, 1, 2; 0, 0, 0, 0, 0, 0, 0, 0, 0, 0, 0, 0, 0, 0, 1, 0, 0, 0, 0, 0, 0, 0, 0, 0, 0, 0, 0, 0, 1, 0, 0, 0, 0, 0, 0, 0, 0, 0, 0, 0, 0, 0, -1, 0, 0, 0, 0, 0, 0, 0, 0, 0, 0, 0, 0, 0, 1, 0, 0, 0, 0, 0, 0, 0, 0, 0, 0, 0, 0, 1, 0, 0, 0, 0, 0, 0, 0, 0, 0, 0, 0, 0, 0, 0, 0, -1, 0, 1, 0, 1, 0, 0, 0, 0, 0, 0, 0, 1, 0, 0, 0, 0, 0, 0, 1, 0, 0, 0, 0, 0, 0, 1, 0, 0, 0, 0, 0, 0, 1, 0, 0, 0, 0, 0, 0, 0, 0, 0, -1, 0, 2, 0, 0, -1, -1, 0, 0, 0, 0, 1, 0, 0, 0, 0, 0, 0, 0, 0, 0, -1, 0, 0, 0, 0, 0, -1, 0, 0, 2, 0, 1, 1, 1, 2, 0, 0, 0, 0, 1, 0, 0, 0, 0, 0, 0, 1, 0, -1, -1, 0, 0, 0, -1, 0, 0, 1, 0, 0, 0, 0, 1, -1, 1, 1, 2, 0, 1, 0, 0, 0, 0, 0, 1, -1, 0, 2, -1, 1, -1, -2, 1, 0, 0, 0, 0, 1, 1, 0, -1, -1, 0, 0, 2, -2, 1]]'
p1
tp2
Rp3
.