csage.libs.pari.gen_py
pari
p0
(S'[y^3 + 3*y + 6, [1, 1], -1080, 1, [[1, -1.28790975070413, 3.65871152595877; 1, 0.643954875352064 + 2.06010525082314*I, -1.82935576297938 + 2.65322964001189*I], [1, -1.28790975070413, 3.65871152595877; 1, 2.70406012617520, 0.823873877032511; 1, -1.41615037547108, -4.48258540299128], [1, -1, 4; 1, 3, 1; 1, -1, -4], [3, 0, 0; 0, -6, -18; 0, -18, 6], [60, 18, 57; 0, 6, 0; 0, 0, 3], [20, 0, 0; 0, -1, -3; 0, -3, 1], [20, [0, -20, -40; 7, -1, -13; 1, 7, 1]], []], [-1.28790975070413, 0.643954875352064 + 2.06010525082314*I], [1, y, y^2 + 2], [1, 0, -2; 0, 1, 0; 0, 0, 1], [1, 0, 0, 0, -2, -6, 0, -6, 2; 0, 1, 0, 1, 0, -1, 0, -1, -6; 0, 0, 1, 0, 1, 0, 1, 0, 1]]'
p1
tp2
Rp3
.