csage.libs.pari.gen_py
pari
p0
(S'[y^8 + 1, [0, 4], 16777216, 1, [[1, -0.923879532511287 + 0.382683432365090*I, 0.707106781186548 - 0.707106781186548*I, -0.382683432365090 + 0.923879532511287*I, 6.50521303491303 E-19 - 1.00000000000000*I, 0.382683432365090 + 0.923879532511287*I, -0.707106781186548 - 0.707106781186548*I, 0.923879532511287 + 0.382683432365090*I; 1, 0.923879532511287 + 0.382683432365090*I, 0.707106781186548 + 0.707106781186548*I, 0.382683432365090 + 0.923879532511287*I, 6.50521303491303 E-19 + 1.00000000000000*I, -0.382683432365090 + 0.923879532511287*I, -0.707106781186548 + 0.707106781186548*I, -0.923879532511287 + 0.382683432365090*I; 1, -0.382683432365090 + 0.923879532511287*I, -0.707106781186548 - 0.707106781186548*I, 0.923879532511287 - 0.382683432365090*I, -8.13151629364128 E-20 + 1.00000000000000*I, -0.923879532511287 - 0.382683432365090*I, 0.707106781186548 - 0.707106781186548*I, 0.382683432365090 + 0.923879532511287*I; 1, 0.382683432365090 + 0.923879532511287*I, -0.707106781186548 + 0.707106781186548*I, -0.923879532511287 - 0.382683432365090*I, -8.13151629364128 E-20 - 1.00000000000000*I, 0.923879532511287 - 0.382683432365090*I, 0.707106781186548 + 0.707106781186548*I, -0.382683432365090 + 0.923879532511287*I], [1, -0.541196100146197, 0.E-19, 0.541196100146197, -1.00000000000000, 1.30656296487638, -1.41421356237310, 1.30656296487638; 1, -1.30656296487638, 1.41421356237310, -1.30656296487638, 1.00000000000000, -0.541196100146197, 1.40946282423116 E-18, 0.541196100146197; 1, 1.30656296487638, 1.41421356237310, 1.30656296487638, 1.00000000000000, 0.541196100146197, 1.40946282423116 E-18, -0.541196100146197; 1, 0.541196100146197, 0.E-19, -0.541196100146197, -1.00000000000000, -1.30656296487638, -1.41421356237310, -1.30656296487638; 1, 0.541196100146197, -1.41421356237310, 0.541196100146197, 1.00000000000000, -1.30656296487638, 1.08420217248550 E-19, 1.30656296487638; 1, -1.30656296487638, 5.42101086242752 E-20, 1.30656296487638, -1.00000000000000, -0.541196100146197, 1.41421356237310, -0.541196100146197; 1, 1.30656296487638, 5.42101086242752 E-20, -1.30656296487638, -1.00000000000000, 0.541196100146197, 1.41421356237310, 0.541196100146197; 1, -0.541196100146197, -1.41421356237310, -0.541196100146197, 1.00000000000000, 1.30656296487638, 1.08420217248550 E-19, -1.30656296487638], [1, -1, 0, 1, -1, 1, -1, 1; 1, -1, 1, -1, 1, -1, 0, 1; 1, 1, 1, 1, 1, 1, 0, -1; 1, 1, 0, -1, -1, -1, -1, -1; 1, 1, -1, 1, 1, -1, 0, 1; 1, -1, 0, 1, -1, -1, 1, -1; 1, 1, 0, -1, -1, 1, 1, 1; 1, -1, -1, -1, 1, 1, 0, -1], [8, 0, 0, 0, 0, 0, 0, 0; 0, 0, 0, 0, 0, 0, 0, -8; 0, 0, 0, 0, 0, 0, -8, 0; 0, 0, 0, 0, 0, -8, 0, 0; 0, 0, 0, 0, -8, 0, 0, 0; 0, 0, 0, -8, 0, 0, 0, 0; 0, 0, -8, 0, 0, 0, 0, 0; 0, -8, 0, 0, 0, 0, 0, 0], [8, 0, 0, 0, 0, 0, 0, 0; 0, 8, 0, 0, 0, 0, 0, 0; 0, 0, 8, 0, 0, 0, 0, 0; 0, 0, 0, 8, 0, 0, 0, 0; 0, 0, 0, 0, 8, 0, 0, 0; 0, 0, 0, 0, 0, 8, 0, 0; 0, 0, 0, 0, 0, 0, 8, 0; 0, 0, 0, 0, 0, 0, 0, 8], [1, 0, 0, 0, 0, 0, 0, 0; 0, 0, 0, 0, 0, 0, 0, -1; 0, 0, 0, 0, 0, 0, -1, 0; 0, 0, 0, 0, 0, -1, 0, 0; 0, 0, 0, 0, -1, 0, 0, 0; 0, 0, 0, -1, 0, 0, 0, 0; 0, 0, -1, 0, 0, 0, 0, 0; 0, -1, 0, 0, 0, 0, 0, 0], [1, 0], []], [-0.923879532511287 + 0.382683432365090*I, 0.923879532511287 + 0.382683432365090*I, -0.382683432365090 + 0.923879532511287*I, 0.382683432365090 + 0.923879532511287*I], [1, y, y^2, y^3, y^4, y^5, y^6, y^7], [1, 0, 0, 0, 0, 0, 0, 0; 0, 1, 0, 0, 0, 0, 0, 0; 0, 0, 1, 0, 0, 0, 0, 0; 0, 0, 0, 1, 0, 0, 0, 0; 0, 0, 0, 0, 1, 0, 0, 0; 0, 0, 0, 0, 0, 1, 0, 0; 0, 0, 0, 0, 0, 0, 1, 0; 0, 0, 0, 0, 0, 0, 0, 1], [1, 0, 0, 0, 0, 0, 0, 0, 0, 0, 0, 0, 0, 0, 0, -1, 0, 0, 0, 0, 0, 0, -1, 0, 0, 0, 0, 0, 0, -1, 0, 0, 0, 0, 0, 0, -1, 0, 0, 0, 0, 0, 0, -1, 0, 0, 0, 0, 0, 0, -1, 0, 0, 0, 0, 0, 0, -1, 0, 0, 0, 0, 0, 0; 0, 1, 0, 0, 0, 0, 0, 0, 1, 0, 0, 0, 0, 0, 0, 0, 0, 0, 0, 0, 0, 0, 0, -1, 0, 0, 0, 0, 0, 0, -1, 0, 0, 0, 0, 0, 0, -1, 0, 0, 0, 0, 0, 0, -1, 0, 0, 0, 0, 0, 0, -1, 0, 0, 0, 0, 0, 0, -1, 0, 0, 0, 0, 0; 0, 0, 1, 0, 0, 0, 0, 0, 0, 1, 0, 0, 0, 0, 0, 0, 1, 0, 0, 0, 0, 0, 0, 0, 0, 0, 0, 0, 0, 0, 0, -1, 0, 0, 0, 0, 0, 0, -1, 0, 0, 0, 0, 0, 0, -1, 0, 0, 0, 0, 0, 0, -1, 0, 0, 0, 0, 0, 0, -1, 0, 0, 0, 0; 0, 0, 0, 1, 0, 0, 0, 0, 0, 0, 1, 0, 0, 0, 0, 0, 0, 1, 0, 0, 0, 0, 0, 0, 1, 0, 0, 0, 0, 0, 0, 0, 0, 0, 0, 0, 0, 0, 0, -1, 0, 0, 0, 0, 0, 0, -1, 0, 0, 0, 0, 0, 0, -1, 0, 0, 0, 0, 0, 0, -1, 0, 0, 0; 0, 0, 0, 0, 1, 0, 0, 0, 0, 0, 0, 1, 0, 0, 0, 0, 0, 0, 1, 0, 0, 0, 0, 0, 0, 1, 0, 0, 0, 0, 0, 0, 1, 0, 0, 0, 0, 0, 0, 0, 0, 0, 0, 0, 0, 0, 0, -1, 0, 0, 0, 0, 0, 0, -1, 0, 0, 0, 0, 0, 0, -1, 0, 0; 0, 0, 0, 0, 0, 1, 0, 0, 0, 0, 0, 0, 1, 0, 0, 0, 0, 0, 0, 1, 0, 0, 0, 0, 0, 0, 1, 0, 0, 0, 0, 0, 0, 1, 0, 0, 0, 0, 0, 0, 1, 0, 0, 0, 0, 0, 0, 0, 0, 0, 0, 0, 0, 0, 0, -1, 0, 0, 0, 0, 0, 0, -1, 0; 0, 0, 0, 0, 0, 0, 1, 0, 0, 0, 0, 0, 0, 1, 0, 0, 0, 0, 0, 0, 1, 0, 0, 0, 0, 0, 0, 1, 0, 0, 0, 0, 0, 0, 1, 0, 0, 0, 0, 0, 0, 1, 0, 0, 0, 0, 0, 0, 1, 0, 0, 0, 0, 0, 0, 0, 0, 0, 0, 0, 0, 0, 0, -1; 0, 0, 0, 0, 0, 0, 0, 1, 0, 0, 0, 0, 0, 0, 1, 0, 0, 0, 0, 0, 0, 1, 0, 0, 0, 0, 0, 0, 1, 0, 0, 0, 0, 0, 0, 1, 0, 0, 0, 0, 0, 0, 1, 0, 0, 0, 0, 0, 0, 1, 0, 0, 0, 0, 0, 0, 1, 0, 0, 0, 0, 0, 0, 0]]'
p1
tp2
Rp3
.