csage.libs.pari.gen_py
pari
p0
(S'[y^12 - y - 1, [2, 5], -9201412118867, 1, [[1, -0.852550714494667, 0.726842720785367, -0.619670280930813, 0.528300340758676, -0.450402832981585, 0.383991257068872, -2.60422595981304, -0.327372020573773, -1.61376143212466, 1.37581346198182, -1.17295075002398; 1, 1.06216916786426, 1.12820334116144, 1.19834280406312, 1.27284277900785, 1.35197435540079, 1.43602547604987, -0.696366475858589, 1.52530198492776, 0.834485755335937, 0.886365040339746, 0.941469617321635; 1, -0.846373101056003 + 0.382565535309546*I, 0.569991037384476 - 0.647586356954181*I, -0.234680860577892 + 0.766158599475506*I, -0.0944783070145569 - 0.738236838792695*I, 0.362387869108386 + 0.588679658464590*I, -0.531923893228689 - 0.359605518928129*I, 1.29026580402291 - 0.872280245195521*I, 0.587778752886754 + 0.100864689255082*I, -0.365504321746830 - 1.19325571996891*I, 0.765851539517319 + 0.870110187555870*I, -0.981070312130389 - 0.443449453519000*I; 1, 0.904169126149079 + 0.550698960270991*I, 0.514252463837639 + 0.995849995358858*I, -0.0834423561819058 + 1.18361511723137*I, -0.727261616693155 + 1.02423662745199*I, -1.22161354625649 + 0.525580920255223*I, -1.39398211893343 - 0.197527268388616*I, 0.703248859787807 - 0.0996503645093941*I, -1.15161753301671 - 0.946262561182545*I, -0.0592669360280016 - 0.840691042829620*I, 0.409380349437436 - 0.792765125605684*I, 0.806724003223603 - 0.491348418069785*I; 1, -0.572062910278735 + 0.811465700067108*I, -0.331220609068825 - 0.928418859943521*I, 0.942859085707782 + 0.262339831562267*I, -0.752254487626903 + 0.615022920522955*I, -0.0687331132973918 - 0.962260516233277*I, 0.820161068277597 + 0.494698987463066*I, -0.894014471873747 + 0.539245364257619*I, -0.870614987800404 + 0.382533632957602*I, 0.984395205590484 - 0.273896785150511*I, -0.340878139666237 + 0.955489136676377*I, -0.580342920571744 - 0.823210814508640*I; 1, 0.480860092974289 + 0.930826396712411*I, -0.635211351801368 + 0.895194535332104*I, -1.13871849336535 - 0.160808166258216*I, -0.397879794631140 - 1.13727546182701*I, 0.867281505162954 - 0.917227399872690*I, 1.27082054079693 + 0.366230465604802*I, -0.726552835900302 + 0.209381084768582*I, 0.270189898736021 + 1.35901892059886*I, -0.861009338937508 + 0.121590484156049*I, -0.527204663014713 - 0.742982208982869*I, 0.438075769135217 - 0.848006510893711*I; 1, -0.0714024344734242 + 1.02490627814160*I, -1.04533457132533 - 0.146361606732813*I, 0.224646362851213 - 1.06091938987562*I, 1.07130264608250 + 0.305993694865062*I, -0.390108475927057 + 1.07613611301277*I, -1.07508396347177 - 0.476663364427771*I, 0.777348861799148 - 0.344655614248690*I, 0.565298887017340 - 1.06782537904714*I, 0.191023229516217 + 0.902130110357676*I, -0.938238337434587 + 0.131366621110737*I, -0.0676459733055153 - 0.970986258985696*I], [1, -0.852550714494667, 0.726842720785367, -0.619670280930813, 0.528300340758676, -0.450402832981585, 0.383991257068872, -2.60422595981304, -0.327372020573773, -1.61376143212466, 1.37581346198182, -1.17295075002398; 1, 1.06216916786426, 1.12820334116144, 1.19834280406312, 1.27284277900785, 1.35197435540079, 1.43602547604987, -0.696366475858589, 1.52530198492776, 0.834485755335937, 0.886365040339746, 0.941469617321635; 1, -0.463807565746457, -0.0775953195697051, 0.531477738897614, -0.832715145807252, 0.951067527572976, -0.891529412156817, 0.417985558827386, 0.688643442141837, -1.55876004171574, 1.63596172707319, -1.42451976564939; 1, -1.22893863636555, 1.21757739433866, -1.00083946005340, 0.643758531778138, -0.226291789356204, -0.172318374300560, 2.16254604921843, 0.486914063631672, 0.827751398222079, -0.104258648038552, -0.537620858611389; 1, 1.45486808642007, 1.51010245919650, 1.10017276104946, 0.296975010758833, -0.696032626001271, -1.59150938732205, 0.603598495278413, -2.09788009419925, -0.899957978857622, -0.383384776168248, 0.315375585153818; 1, 0.353470165878088, -0.481597531521219, -1.26705747341327, -1.75149824414514, -1.74719446651172, -1.19645485054482, 0.802899224297201, -0.205354971834160, 0.781424106801619, 1.20214547504312, 1.29807242129339; 1, 0.239402789788373, -1.25963946901235, 1.20519891727005, -0.137231567103949, -1.03099362953067, 1.31486005574066, -0.354769107616128, -0.488081354842803, 0.710498420439974, 0.614610997010140, -1.40355373508038; 1, -1.38352861034584, 0.597198250874696, 0.680519254145515, -1.36727740814986, 0.893527402935885, 0.325462080814530, -1.43325983613137, -1.25314862075801, 1.25829199074099, -1.29636727634261, 0.242867893936896; 1, 1.41168648968670, 0.259983183530736, -1.29952665962357, -1.53515525645815, -0.0499458947097356, 1.63705100640173, -0.517171751131720, 1.62920881933489, -0.739418854781459, -1.27018687199758, -0.409930741758494; 1, -0.449966303738122, -1.53040588713347, -0.977910327107137, 0.739395667195867, 1.78450890503564, 0.904590075192127, -0.935933920668884, -1.08882902186284, -0.982599823093556, 0.215777545968156, 1.28608228002893; 1, 0.953503843668172, -1.19169617805814, -0.836273027024404, 1.37729634094756, 0.686027637085713, -1.55174732789954, 0.432693247550458, -0.502526492029795, 1.09315333987389, -0.806871716323850, -1.03863223229121; 1, -1.09630871261502, -0.898972964592514, 1.28556575272683, 0.765308951217433, -1.46624458893983, -0.598420599044003, 1.12200447604784, 1.63312426606448, -0.711106880841459, -1.06960495854532, 0.903340285680181], [1, -1, 1, -1, 1, 0, 0, -3, 0, -2, 1, -1; 1, 1, 1, 1, 1, 1, 1, -1, 2, 1, 1, 1; 1, 0, 0, 1, -1, 1, -1, 0, 1, -2, 2, -1; 1, -1, 1, -1, 1, 0, 0, 2, 0, 1, 0, -1; 1, 1, 2, 1, 0, -1, -2, 1, -2, -1, 0, 0; 1, 0, 0, -1, -2, -2, -1, 1, 0, 1, 1, 1; 1, 0, -1, 1, 0, -1, 1, 0, 0, 1, 1, -1; 1, -1, 1, 1, -1, 1, 0, -1, -1, 1, -1, 0; 1, 1, 0, -1, -2, 0, 2, -1, 2, -1, -1, 0; 1, 0, -2, -1, 1, 2, 1, -1, -1, -1, 0, 1; 1, 1, -1, -1, 1, 1, -2, 0, -1, 1, -1, -1; 1, -1, -1, 1, 1, -1, -1, 1, 2, -1, -1, 1], [12, 0, 0, 0, 0, 0, 0, -1, 0, -1, 1, -1; 0, 0, 0, 0, 0, 0, 0, 1, 0, 1, -1, 12; 0, 0, 0, 0, 0, 0, 0, -1, 0, -1, 12, 0; 0, 0, 0, 0, 0, 0, 0, 1, 0, 12, 0, 0; 0, 0, 0, 0, 0, 0, 0, -1, 11, 0, 0, 0; 0, 0, 0, 0, 0, 0, 11, 1, 12, 0, 0, 0; 0, 0, 0, 0, 0, 11, 12, -12, 0, 0, 0, 0; -1, 1, -1, 1, -1, 1, -12, 13, 0, 1, -1, 1; 0, 0, 0, 0, 11, 12, 0, 0, 0, 0, 0, 0; -1, 1, -1, 12, 0, 0, 0, 1, 0, 1, -1, 1; 1, -1, 12, 0, 0, 0, 0, -1, 0, -1, 1, -1; -1, 12, 0, 0, 0, 0, 0, 1, 0, 1, -1, 1], [9201412118867, 8364920108062, 912536739060, 9042409505244, 3519425439904, 5362038911699, 842439091868, 65417891681, 8282387655011, 8684897665436, 2236454334446, 8434627775629; 0, 1, 0, 0, 0, 0, 0, 0, 0, 0, 0, 0; 0, 0, 1, 0, 0, 0, 0, 0, 0, 0, 0, 0; 0, 0, 0, 1, 0, 0, 0, 0, 0, 0, 0, 0; 0, 0, 0, 0, 1, 0, 0, 0, 0, 0, 0, 0; 0, 0, 0, 0, 0, 1, 0, 0, 0, 0, 0, 0; 0, 0, 0, 0, 0, 0, 1, 0, 0, 0, 0, 0; 0, 0, 0, 0, 0, 0, 0, 1, 0, 0, 0, 0; 0, 0, 0, 0, 0, 0, 0, 0, 1, 0, 0, 0; 0, 0, 0, 0, 0, 0, 0, 0, 0, 1, 0, 0; 0, 0, 0, 0, 0, 0, 0, 0, 0, 0, 1, 0; 0, 0, 0, 0, 0, 0, 0, 0, 0, 0, 0, 1], [768945795289, 61917364224, -56757583872, 52027785216, -47692136448, 43717791744, -6400810944, 33673831488, 3061257408, -2806152624, 2572306572, -2357947691; 61917364224, -56757583872, 52027785216, -47692136448, 43717791744, -40074642432, 5867410032, -30867678864, -2806152624, 2572306572, -2357947691, 768945795289; -56757583872, 52027785216, -47692136448, 43717791744, -40074642432, 36735088896, -5378459196, 28295372292, 2572306572, -2357947691, 768945795289, 61917364224; 52027785216, -47692136448, 43717791744, -40074642432, 36735088896, -33673831488, 4930254263, -25937424601, -2357947691, 768945795289, 61917364224, -56757583872; -47692136448, 43717791744, -40074642432, 36735088896, -33673831488, 30867678864, -771303742980, -743008370688, 768945795289, 61917364224, -56757583872, 52027785216; 43717791744, -40074642432, 36735088896, -33673831488, 30867678864, -28295372292, 707028431065, 681091006464, 61917364224, -56757583872, 52027785216, -47692136448; -6400810944, 5867410032, -5378459196, 4930254263, -771303742980, 707028431065, 18955026432, -99719921664, -9065447424, 8309993472, -7617494016, 6982702848; 33673831488, -30867678864, 28295372292, -25937424601, -743008370688, 681091006464, -99719921664, 524613500928, 47692136448, -43717791744, 40074642432, -36735088896; 3061257408, -2806152624, 2572306572, -2357947691, 768945795289, 61917364224, -9065447424, 47692136448, 4335648768, -3974344704, 3643149312, -3339553536; -2806152624, 2572306572, -2357947691, 768945795289, 61917364224, -56757583872, 8309993472, -43717791744, -3974344704, 3643149312, -3339553536, 3061257408; 2572306572, -2357947691, 768945795289, 61917364224, -56757583872, 52027785216, -7617494016, 40074642432, 3643149312, -3339553536, 3061257408, -2806152624; -2357947691, 768945795289, 61917364224, -56757583872, 52027785216, -47692136448, 6982702848, -36735088896, -3339553536, 3061257408, -2806152624, 2572306572], [9201412118867, [766784343238, 1, 836492010805, -912536739060, 159002613623, -3519425439904, -5362038911699, 5427456803380, -842439091868, 1826881447405, 516514453431, -2236454334446; -2236454334446, 766784343238, 1, 836492010805, -912536739060, 159002613623, -3519425439904, -1908031363476, -5362038911699, -907856983549, 1826881447405, 516514453431; 516514453431, -2236454334446, 766784343238, 1, 836492010805, -912536739060, 159002613623, 1749028749853, -3519425439904, 65417891681, -907856983549, 1826881447405; 1826881447405, 516514453431, -2236454334446, 766784343238, 1, 836492010805, -912536739060, -836492010793, 159002613623, -5427456803380, 65417891681, -907856983549; -907856983549, 1826881447405, 516514453431, -2236454334446, 766784343238, 1, 836492010805, -12, -912536739060, 1908031363476, -5427456803380, 65417891681; 65417891681, -907856983549, 1826881447405, 516514453431, -2236454334446, 766784343238, 1, 11, 836492010805, -1749028749853, 1908031363476, -5427456803380; -3678428053527, -1842613471795, 4519599819831, 1761463555724, 1424371436980, -4063335781851, 250269889807, 2752968787877, 2236454334447, 836492010804, -1749028749865, 1071539352683; 1749028749853, -1908031363476, 5427456803380, -65417891681, 907856983549, -1826881447405, -516514453431, 3519753131126, 2236454334446, 11, -12, -836492010793; 159002613623, -3519425439904, -5362038911699, -842439091868, 919024463856, 2343395900836, -1719939881015, -516514453431, -1469669991208, 1, 836492010805, -912536739060; -912536739060, 159002613623, -3519425439904, -5362038911699, -842439091868, 919024463856, 2343395900836, -1826881447405, -1719939881015, 766784343238, 1, 836492010805; 836492010805, -912536739060, 159002613623, -3519425439904, -5362038911699, -842439091868, 919024463856, 907856983549, 2343395900836, -2236454334446, 766784343238, 1; 1, 836492010805, -912536739060, 159002613623, -3519425439904, -5362038911699, -842439091868, -65417891681, 919024463856, 516514453431, -2236454334446, 766784343238]], []], [-0.852550714494667, 1.06216916786426, -0.846373101056003 + 0.382565535309546*I, 0.904169126149079 + 0.550698960270991*I, -0.572062910278735 + 0.811465700067108*I, 0.480860092974289 + 0.930826396712411*I, -0.0714024344734242 + 1.02490627814160*I], [1, y, y^2, y^3, y^4, y^5, y^6, y^11 - y^10 + y^9 - y^8 + y^7 - y^6 - 1, y^7, y^11 - y^10 + y^9 - 1, -y^11 + y^10 + 1, y^11 - 1], [1, 0, 0, 0, 0, 0, 0, 0, 0, 0, 0, 1; 0, 1, 0, 0, 0, 0, 0, 0, 0, 0, 0, 0; 0, 0, 1, 0, 0, 0, 0, 0, 0, 0, 0, 0; 0, 0, 0, 1, 0, 0, 0, 0, 0, 0, 0, 0; 0, 0, 0, 0, 1, 0, 0, 0, 0, 0, 0, 0; 0, 0, 0, 0, 0, 1, 0, 0, 0, 0, 0, 0; 0, 0, 0, 0, 0, 0, 1, 0, -1, 0, 0, 0; 0, 0, 0, 0, 0, 0, 0, 0, -1, 0, 0, 0; 0, 0, 0, 0, 0, 0, 0, 1, 1, 0, 0, 0; 0, 0, 0, 0, 0, 0, 0, 0, 1, 1, 0, 0; 0, 0, 0, 0, 0, 0, 0, 0, 0, 1, 1, 0; 0, 0, 0, 0, 0, 0, 0, 0, 0, 0, 1, 1], [1, 0, 0, 0, 0, 0, 0, 0, 0, 0, 0, 0, 0, 0, 0, 0, 0, 0, 0, 0, 0, 0, 0, 1, 0, 0, 0, 0, 0, 0, 0, 0, 0, 0, 1, 0, 0, 0, 0, 0, 0, 0, 0, 0, 0, 1, 0, 0, 0, 0, 0, 0, 0, 0, 0, 0, 1, 0, 0, 0, 0, 0, 0, 0, 0, 0, 1, 0, 1, 0, 0, 0, 0, 0, 0, 0, 0, 1, 1, -1, 0, 0, 0, 0, 0, 0, 0, 0, 0, 0, -1, 1, 0, 0, 0, 0, 0, 0, 0, 0, 1, 1, 0, 0, 0, 0, 0, 0, 0, 0, 0, 1, 0, 0, 0, 0, 0, 0, 0, 0, 0, 0, 1, 0, 0, 0, 0, 0, 0, 0, 0, 0, 0, 1, 0, 0, 0, 0, 0, 0, 0, 0, 0, 0; 0, 1, 0, 0, 0, 0, 0, 0, 0, 0, 0, 0, 1, 0, 0, 0, 0, 0, 0, 0, 0, 0, 0, 0, 0, 0, 0, 0, 0, 0, 0, 0, 0, 0, 0, 1, 0, 0, 0, 0, 0, 0, 0, 0, 0, 0, 1, 0, 0, 0, 0, 0, 0, 0, 0, 0, 0, 1, 0, 0, 0, 0, 0, 0, 0, 0, 0, 0, 1, 0, 0, 0, 0, 0, 0, 0, 0, 0, 1, 0, 1, 0, 0, 0, 0, 0, 0, 0, 0, 0, 0, -1, -1, 0, 0, 0, 0, 0, 0, 0, 0, 1, 1, -1, 0, 0, 0, 0, 0, 0, 0, 0, 1, 0, 0, 0, 0, 0, 0, 0, 0, 0, 0, 1, 0, 0, 0, 0, 0, 0, 0, 0, 0, 0, 1, 0, 0, 0, 0, 0, 0, 0, 0, 0; 0, 0, 1, 0, 0, 0, 0, 0, 0, 0, 0, 0, 0, 1, 0, 0, 0, 0, 0, 0, 0, 0, 0, 0, 1, 0, 0, 0, 0, 0, 0, 0, 0, 0, 0, 0, 0, 0, 0, 0, 0, 0, 0, 0, 0, 0, 0, 1, 0, 0, 0, 0, 0, 0, 0, 0, 0, 0, 1, 0, 0, 0, 0, 0, 0, 0, 0, 0, 0, 1, 0, 0, 0, 0, 0, 0, 0, 0, 0, 0, 1, 0, 0, 0, 0, 0, 0, 0, 0, 0, 0, 1, 0, 0, 0, 0, 0, 0, 0, 0, 0, 0, 1, 0, 1, 0, 0, 0, 0, 0, 0, 0, 0, 1, 0, 0, 0, 0, 0, 0, 0, 0, 0, 0, 1, 0, 0, 0, 0, 0, 0, 0, 0, 0, 0, 1, 0, 0, 0, 0, 0, 0, 0, 0; 0, 0, 0, 1, 0, 0, 0, 0, 0, 0, 0, 0, 0, 0, 1, 0, 0, 0, 0, 0, 0, 0, 0, 0, 0, 1, 0, 0, 0, 0, 0, 0, 0, 0, 0, 0, 1, 0, 0, 0, 0, 0, 0, 0, 0, 0, 0, 0, 0, 0, 0, 0, 0, 0, 0, 0, 0, 0, 0, 1, 0, 0, 0, 0, 0, 0, 0, 0, 0, 0, 1, 0, 0, 0, 0, 0, 0, 0, 0, 0, 0, 1, 0, 0, 0, 0, 0, 0, 0, 0, 0, -1, 0, -1, 0, 0, 0, 0, 0, 0, 0, 0, 0, 0, 1, 0, 0, 0, 0, 0, 0, 0, 0, 0, 1, -1, 0, 0, 0, 0, 0, 0, 0, 0, 0, 1, 0, 0, 0, 0, 0, 0, 0, 0, 0, 0, 1, 0, 0, 0, 0, 0, 0, 0; 0, 0, 0, 0, 1, 0, 0, 0, 0, 0, 0, 0, 0, 0, 0, 1, 0, 0, 0, 0, 0, 0, 0, 0, 0, 0, 1, 0, 0, 0, 0, 0, 0, 0, 0, 0, 0, 1, 0, 0, 0, 0, 0, 0, 0, 0, 0, 0, 1, 0, 0, 0, 0, 0, 0, 0, 0, 0, 0, 0, 0, 0, 0, 0, 0, 0, 0, 0, 0, 0, 0, 1, 0, 0, 0, 0, 0, 0, 0, 0, 0, 0, 1, 0, 0, 0, 0, 0, 0, 0, 0, 1, 0, 1, -1, 0, 0, 0, 0, 0, 0, 0, 0, 0, 0, 1, 0, 0, 0, 0, 0, 0, 0, 0, 0, 1, 1, 0, 0, 0, 0, 0, 0, 0, 0, 0, 1, -1, 0, 0, 0, 0, 0, 0, 0, 0, 0, 1, 0, 0, 0, 0, 0, 0; 0, 0, 0, 0, 0, 1, 0, 0, 0, 0, 0, 0, 0, 0, 0, 0, 1, 0, 0, 0, 0, 0, 0, 0, 0, 0, 0, 1, 0, 0, 0, 0, 0, 0, 0, 0, 0, 0, 1, 0, 0, 0, 0, 0, 0, 0, 0, 0, 0, 1, 0, 0, 0, 0, 0, 0, 0, 0, 0, 0, 1, 0, 0, 0, 0, 0, 0, 0, 0, 0, 0, 0, 0, 0, 0, 0, 0, 0, 0, 0, 0, 0, 0, 1, 0, 0, 0, 0, 0, 0, 0, -1, 0, -1, 1, -1, 0, 0, 0, 0, 0, 0, 0, 0, 0, 0, 1, 0, 0, 0, 0, 0, 0, 0, 0, -1, 0, 0, 0, 0, 0, 0, 0, 0, 0, 0, 0, 1, 1, 0, 0, 0, 0, 0, 0, 0, 0, 0, 1, -1, 0, 0, 0, 0; 0, 0, 0, 0, 0, 0, 1, 0, 0, 0, 0, 0, 0, 0, 0, 0, 0, 1, 0, -1, -1, 0, 0, 0, 0, 0, 0, 0, 1, 0, -1, 1, 0, 0, 0, 0, 0, 0, 0, 1, 0, -1, 0, 0, 0, 0, 0, 0, 0, 0, 1, 0, -1, 0, 0, 0, 0, 0, 0, 0, 0, 1, 0, -1, 0, 0, 0, 0, 0, 0, 0, 0, 1, 0, -1, 0, 0, 0, 0, 0, 0, 0, 0, 0, 0, -1, 1, 0, 0, 0, 0, 0, 0, 0, 0, 0, 0, -1, 0, 0, 0, 0, 0, 0, 0, 0, 0, 1, 0, 0, 0, 0, 0, 0, 0, 0, 0, 0, 1, -1, 0, 0, 0, 0, 0, 0, 0, 0, 0, 1, -1, 0, 0, 0, 0, 0, 0, 0, 0, 0, 1, -1, 0, 0; 0, 0, 0, 0, 0, 0, 0, 1, 0, 0, 0, 0, 0, 0, 0, 0, 0, 0, 0, -1, -1, 0, 0, 0, 0, 0, 0, 0, 0, 0, -1, 1, 0, 0, 0, 0, 0, 0, 0, 0, 0, -1, 0, 0, 0, 0, 0, 0, 0, 0, 0, 0, -1, 0, 0, 0, 0, 0, 0, 0, 0, 0, 0, -1, 0, 0, 0, 0, 0, 0, 0, 0, 0, 0, -1, 0, 0, 0, 0, 0, 0, 0, 0, 0, 1, -1, 1, 0, 0, 0, 0, -1, 0, -1, 1, -1, 0, -1, 0, 0, 0, 0, 0, 0, 0, 0, 0, 0, 0, 0, 0, 0, 0, 0, 0, -1, 0, -1, 1, -1, 0, 0, 0, 0, 0, 0, 0, 1, 0, 1, -1, 0, 0, 0, 0, 0, 0, 0, 0, -1, 0, -1, 0, 0; 0, 0, 0, 0, 0, 0, 0, 0, 1, 0, 0, 0, 0, 0, 0, 0, 0, 0, 1, 0, 1, 0, 0, 0, 0, 0, 0, 0, 0, 1, 1, -1, 0, 0, 0, 0, 0, 0, 0, 0, 1, 1, 0, 0, 0, 0, 0, 0, 0, 0, 0, 1, 1, 0, 0, 0, 0, 0, 0, 0, 0, 0, 1, 1, 0, 0, 0, 0, 0, 0, 0, 0, 0, 1, 1, 0, 0, 0, 0, 0, 0, 0, 0, 0, 0, 0, -1, 0, 0, 0, 0, 0, 0, 0, 0, 0, 1, 1, 0, 0, 0, 0, 0, 0, 0, 0, 0, 0, 0, 0, 0, 0, 0, 0, 0, 0, 0, 0, 0, 1, 0, 0, 0, 0, 0, 0, 0, 0, 0, 0, 1, 0, 0, 0, 0, 0, 0, 0, 0, 0, 0, 1, 0, 0; 0, 0, 0, 0, 0, 0, 0, 0, 0, 1, 0, 0, 0, 0, 0, 0, 0, 0, 0, 0, 1, 0, 0, 0, 0, 0, 0, 0, 0, 0, 1, 0, 1, 0, 0, 0, 0, 0, 0, 0, 0, 1, 1, -1, 0, 0, 0, 0, 0, 0, 0, 0, 1, 1, 0, 0, 0, 0, 0, 0, 0, 0, 0, 1, 1, 0, 0, 0, 0, 0, 0, 0, 0, 0, 1, 1, 0, 0, 0, 0, 0, 0, 0, 0, 0, 0, 0, -1, 0, 0, 0, 0, 0, 0, 0, 0, 0, 1, 1, 0, 0, 0, 0, 0, 0, 0, 0, 0, 1, 0, 0, 0, 0, 0, 0, 0, 0, 0, 0, 0, 0, 0, 0, 0, 0, 0, 0, 0, 0, 0, 0, 1, 0, 0, 0, 0, 0, 0, 0, 0, 0, 0, 1, 0; 0, 0, 0, 0, 0, 0, 0, 0, 0, 0, 1, 0, 0, 0, 0, 0, 0, 0, 0, 0, 0, 1, 0, 0, 0, 0, 0, 0, 0, 0, 0, 0, 1, 0, 0, 0, 0, 0, 0, 0, 0, 0, 1, 0, 1, 0, 0, 0, 0, 0, 0, 0, 0, 1, 1, -1, 0, 0, 0, 0, 0, 0, 0, 0, 1, 1, 0, 0, 0, 0, 0, 0, 0, 0, 0, 1, 1, 0, 0, 0, 0, 0, 0, 0, 0, 0, 0, 0, -1, 0, 0, 0, 0, 0, 0, 0, 0, 0, 1, 1, 0, 0, 0, 0, 0, 0, 0, 0, 0, 1, 0, 0, 0, 0, 0, 0, 0, 0, 0, 0, 1, 0, 0, 0, 0, 0, 0, 0, 0, 0, 0, 0, 0, 0, 0, 0, 0, 0, 0, 0, 0, 0, 0, 1; 0, 0, 0, 0, 0, 0, 0, 0, 0, 0, 0, 1, 0, 0, 0, 0, 0, 0, 0, 0, 0, 0, 1, 0, 0, 0, 0, 0, 0, 0, 0, 0, 0, 1, 0, 0, 0, 0, 0, 0, 0, 0, 0, 0, 1, 0, 0, 0, 0, 0, 0, 0, 0, 0, 1, 0, 1, 0, 0, 0, 0, 0, 0, 0, 0, 1, 1, -1, 0, 0, 0, 0, 0, 0, 0, 0, 1, 1, 0, 0, 0, 0, 0, 0, 0, 0, 0, 0, 0, -1, 0, 0, 0, 0, 0, 0, 0, 0, 0, 1, 1, 0, 0, 0, 0, 0, 0, 0, 0, 0, 1, 0, 0, 0, 0, 0, 0, 0, 0, 0, 0, 1, 0, 0, 0, 0, 0, 0, 0, 0, 0, 0, 1, 0, 0, 0, 0, 0, 0, 0, 0, 0, 0, 0]]'
p1
tp2
Rp3
.