csage.libs.pari.gen_py
pari
p0
(S'[y^8 - y - 1, [2, 3], -17600759, 1, [[1, -0.811652320027803, 0.658779488606515, -0.534699900314207, 0.433990414608661, -1.87020794171154, 1.51795861482460, -1.23205463142857; 1, 1.09698155779856, 1.20336853815016, 1.32007309358573, 1.44809583860964, 0.757533809952664, 0.831000618926952, 0.911592353482055; 1, -0.754280190093574 + 0.562241231701380*I, 0.252823402542513 - 0.848174846252324*I, 0.286179186125165 + 0.781909225512227*I, -0.655480896941980 - 0.428876901160971*I, 0.412789859094397 - 1.12783953086873*I, 0.322758673610721 + 1.08279449454979*I, -0.852242183980590 - 0.635262202988093*I; 1, 0.723236564810835 + 0.807111684067621*I, -0.128358141879094 + 1.16746536360751*I, -1.03510823731001 + 0.740754283055301*I, -1.34649956263656 - 0.299707369561721*I, -0.638890247022873 - 0.457208888719057*I, -0.0930501514032449 - 0.846325969287160*I, 0.615782306485510 - 0.687195751139266*I; 1, -0.111620993602640 + 1.03344013868951*I, -1.05553927404175 - 0.230707230218746*I, 0.356242454549083 - 1.06508488348961*I, 1.06093733296939 + 0.487041084602558*I, 0.282437453807915 + 0.844424516900631*I, -0.904188139083250 + 0.197626697835487*I, -0.103308983531661 - 0.956483604230410*I], [1, -0.811652320027803, 0.658779488606515, -0.534699900314207, 0.433990414608661, -1.87020794171154, 1.51795861482460, -1.23205463142857; 1, 1.09698155779856, 1.20336853815016, 1.32007309358573, 1.44809583860964, 0.757533809952664, 0.831000618926952, 0.911592353482055; 1, -0.192038958392194, -0.595351443709811, 1.06808841163739, -1.08435779810295, -0.715049671774335, 1.40555316816051, -1.48750438696868; 1, -1.31652142179495, 1.10099824879484, -0.495730039387062, -0.226603995781010, 1.54062938996313, -0.760035820939066, -0.216979980992497; 1, 1.53034824887846, 1.03910722172841, -0.294353954254710, -1.64620693219828, -1.09609913574193, -0.939376120690405, -0.0714134446537555; 1, -0.0838751192567859, -1.29582350548660, -1.77586252036531, -1.04679219307484, -0.181681358303816, 0.753275817883915, 1.30297805762478; 1, 0.921819145086871, -1.28624650426050, -0.708842428940522, 1.54797841757194, 1.12686197070855, -0.706561441247763, -1.05979258776207; 1, -1.14506113229215, -0.824832043823008, 1.42132733803869, 0.573896248366829, -0.561987063092715, -1.10181483691874, 0.853174620698748], [1, -1, 1, -1, 0, -2, 2, -1; 1, 1, 1, 1, 1, 1, 1, 1; 1, 0, -1, 1, -1, -1, 1, -1; 1, -1, 1, 0, 0, 2, -1, 0; 1, 2, 1, 0, -2, -1, -1, 0; 1, 0, -1, -2, -1, 0, 1, 1; 1, 1, -1, -1, 2, 1, -1, -1; 1, -1, -1, 1, 1, -1, -1, 1], [8, 0, 0, 0, 0, -1, 1, -1; 0, 0, 0, 0, 0, 1, -1, 8; 0, 0, 0, 0, 0, -1, 8, 0; 0, 0, 0, 0, 7, 8, 0, 0; 0, 0, 0, 7, 8, 0, 0, 0; -1, 1, -1, 8, 0, 1, -1, 1; 1, -1, 8, 0, 0, -1, 1, -1; -1, 8, 0, 0, 0, 1, -1, 1], [17600759, 15086366, 2873592, 16831048, 5908458, 12066146, 6325272, 15400665; 0, 1, 0, 0, 0, 0, 0, 0; 0, 0, 1, 0, 0, 0, 0, 0; 0, 0, 0, 1, 0, 0, 0, 0; 0, 0, 0, 0, 1, 0, 0, 0; 0, 0, 0, 0, 0, 1, 0, 0; 0, 0, 0, 0, 0, 0, 1, 0; 0, 0, 0, 0, 0, 0, 0, 1], [2214801, 262144, -229376, 200704, -175616, 153664, 19208, -16807; 262144, -229376, 200704, -175616, 153664, -134456, -16807, 2214801; -229376, 200704, -175616, 153664, -134456, 117649, 2214801, 262144; 200704, -175616, 153664, -134456, 117649, 2097152, 262144, -229376; -175616, 153664, -134456, 117649, 2097152, -1835008, -229376, 200704; 153664, -134456, 117649, 2097152, -1835008, 1605632, 200704, -175616; 19208, -16807, 2214801, 262144, -229376, 200704, 25088, -21952; -16807, 2214801, 262144, -229376, 200704, -175616, -21952, 19208], [17600759, [-7400320, -1600068, -685745, -9273868, -12030841, -8242933, -5665870, 6475280; 6475280, -7400320, -1600068, -685745, -9273868, -3787908, -8242933, -5665870; -5665870, 6475280, -7400320, -1600068, -685745, -5485960, -3787908, -8242933; -8242933, -5665870, 6475280, -7400320, -1600068, 4800215, -5485960, -3787908; -3787908, -8242933, -5665870, 6475280, -7400320, -6400283, 4800215, -5485960; -5485960, -3787908, -8242933, -5665870, 6475280, -1000037, -6400283, 4800215; -685745, -9273868, -12030841, -13908803, 809410, 6475280, -7400320, -1600068; -1600068, -685745, -9273868, -12030841, -13908803, -5665870, 6475280, -7400320]], []], [-0.811652320027803, 1.09698155779856, -0.754280190093574 + 0.562241231701380*I, 0.723236564810835 + 0.807111684067621*I, -0.111620993602640 + 1.03344013868951*I], [1, y, y^2, y^3, y^4, y^7 - y^6 + y^5 - 1, -y^7 + y^6 + 1, y^7 - 1], [1, 0, 0, 0, 0, 0, 0, 1; 0, 1, 0, 0, 0, 0, 0, 0; 0, 0, 1, 0, 0, 0, 0, 0; 0, 0, 0, 1, 0, 0, 0, 0; 0, 0, 0, 0, 1, 0, 0, 0; 0, 0, 0, 0, 0, 1, 0, 0; 0, 0, 0, 0, 0, 1, 1, 0; 0, 0, 0, 0, 0, 0, 1, 1], [1, 0, 0, 0, 0, 0, 0, 0, 0, 0, 0, 0, 0, 0, 0, 1, 0, 0, 0, 0, 0, 0, 1, 0, 0, 0, 0, 0, 1, 1, 0, 0, 0, 0, 0, 1, 1, 0, 0, 0, 0, 0, 0, 1, 0, 0, 0, 0, 0, 0, 1, 0, 0, 0, 0, 0, 0, 1, 0, 0, 0, 0, 0, 0; 0, 1, 0, 0, 0, 0, 0, 0, 1, 0, 0, 0, 0, 0, 0, 0, 0, 0, 0, 0, 0, 0, 0, 1, 0, 0, 0, 0, 0, 0, 1, 0, 0, 0, 0, 0, 1, 1, 0, 0, 0, 0, 0, 0, 1, 0, 0, 0, 0, 0, 0, 1, 0, 0, 0, 0, 0, 0, 1, 0, 0, 0, 0, 0; 0, 0, 1, 0, 0, 0, 0, 0, 0, 1, 0, 0, 0, 0, 0, 0, 1, 0, 0, 0, 0, 0, 0, 0, 0, 0, 0, 0, 0, 0, 0, 1, 0, 0, 0, 0, 0, 0, 1, 0, 0, 0, 0, 0, 0, 1, 0, 0, 0, 0, 0, 0, 1, 0, 0, 0, 0, 0, 0, 1, 0, 0, 0, 0; 0, 0, 0, 1, 0, 0, 0, 0, 0, 0, 1, 0, 0, 0, 0, 0, 0, 1, 0, 0, 0, 0, 0, 0, 1, 0, 0, 0, 0, 0, 0, 0, 0, 0, 0, 0, 0, 0, 0, 1, 0, 0, 0, 0, 0, -1, 1, 0, 0, 0, 0, 0, 0, 1, 0, 0, 0, 0, 0, 0, 1, 0, 0, 0; 0, 0, 0, 0, 1, 0, 0, 0, 0, 0, 0, 1, 0, 0, 0, 0, 0, 0, 1, 0, 0, 0, 0, 0, 0, 1, 0, 0, 0, 0, 0, 0, 1, 0, 0, 0, 0, 0, 0, 0, 0, 0, 0, 0, 0, 1, -1, 1, 0, 0, 0, 0, 0, -1, 1, 0, 0, 0, 0, 0, 0, 1, 0, 0; 0, 0, 0, 0, 0, 1, 0, 0, 0, 0, 0, 0, 1, 0, 0, 0, 0, 0, 0, 1, 0, 0, 0, 0, 0, 0, 1, 0, 0, 0, 0, 0, 0, 1, 0, 0, 0, 0, 0, 0, 1, 0, 0, 0, 0, -1, 1, -1, 0, 0, 0, 0, 0, 1, -1, 1, 0, 0, 0, 0, 0, -1, 1, 0; 0, 0, 0, 0, 0, 0, 1, 0, 0, 0, 0, 0, 1, 1, 0, 0, 0, 0, 0, 1, 1, 0, 0, 0, 0, 0, 1, 1, 0, 0, 0, 0, 0, 1, 1, 0, 0, 0, 0, 0, 0, 1, 0, 0, 0, 0, 0, 0, 1, 0, 0, 0, 0, 0, 0, 0, 0, 0, 0, 0, 0, 0, 0, 1; 0, 0, 0, 0, 0, 0, 0, 1, 0, 0, 0, 0, 0, 0, 1, 0, 0, 0, 0, 0, 1, 1, 0, 0, 0, 0, 0, 1, 1, 0, 0, 0, 0, 0, 1, 1, 0, 0, 0, 0, 0, 0, 1, 0, 0, 0, 0, 0, 0, 1, 0, 0, 0, 0, 0, 0, 1, 0, 0, 0, 0, 0, 0, 0]]'
p1
tp2
Rp3
.