csage.libs.pari.gen_py
pari
p0
(S'[y^2 - 7, [2, 0], 28, 1, [[1, -2.64575131106459; 1, 2.64575131106459], [1, -2.64575131106459; 1, 2.64575131106459], [1, -3; 1, 3], [2, 0; 0, 14], [14, 0; 0, 2], [7, 0; 0, 1], [7, [0, 7; 1, 0]], []], [-2.64575131106459, 2.64575131106459], [1, y], [1, 0; 0, 1], [1, 0, 0, 7; 0, 1, 1, 0]]'
p1
tp2
Rp3
.