csage.libs.pari.gen_py
pari
p0
(S'[y^5 + 2, [1, 2], 50000, 1, [[1, -1.14869835499704, 1.31950791077289, -1.51571656651040, 1.74110112659225; 1, 0.929316490603148 + 0.675187952399881*I, 0.407750368641006 + 1.25492659684357*I, -0.468382177707358 + 1.44153211743623*I, -1.40858040033850 + 1.02339356496073*I; 1, -0.354967313104630 + 1.09247705577745*I, -1.06750432402745 - 0.775587290235560*I, 1.22624046096256 - 0.890915844450195*I, 0.538029837042371 + 1.65588557197439*I], [1, -1.14869835499704, 1.31950791077289, -1.51571656651040, 1.74110112659225; 1, 1.60450444300303, 1.66267696548457, 0.973149939728872, -0.385186835377762; 1, 0.254128538203267, -0.847176228202559, -1.90991429514359, -2.43197396529923; 1, 0.737509742672824, -1.84309161426301, 0.335324616512362, 2.19391540901676; 1, -1.44744436888208, -0.291917033791893, 2.11715630541275, -1.11785573493202], [1, -1, 1, -2, 2; 1, 2, 2, 1, 0; 1, 0, -1, -2, -2; 1, 1, -2, 0, 2; 1, -1, 0, 2, -1], [5, 0, 0, 0, 0; 0, 0, 0, 0, -10; 0, 0, 0, -10, 0; 0, 0, -10, 0, 0; 0, -10, 0, 0, 0], [10, 0, 0, 0, 0; 0, 10, 0, 0, 0; 0, 0, 10, 0, 0; 0, 0, 0, 10, 0; 0, 0, 0, 0, 5], [2, 0, 0, 0, 0; 0, 0, 0, 0, -1; 0, 0, 0, -1, 0; 0, 0, -1, 0, 0; 0, -1, 0, 0, 0], [2, [0, 0, 0, 0, -2; 1, 0, 0, 0, 0; 0, 1, 0, 0, 0; 0, 0, 1, 0, 0; 0, 0, 0, 1, 0]], []], [-1.14869835499704, 0.929316490603148 + 0.675187952399881*I, -0.354967313104630 + 1.09247705577745*I], [1, y, y^2, y^3, y^4], [1, 0, 0, 0, 0; 0, 1, 0, 0, 0; 0, 0, 1, 0, 0; 0, 0, 0, 1, 0; 0, 0, 0, 0, 1], [1, 0, 0, 0, 0, 0, 0, 0, 0, -2, 0, 0, 0, -2, 0, 0, 0, -2, 0, 0, 0, -2, 0, 0, 0; 0, 1, 0, 0, 0, 1, 0, 0, 0, 0, 0, 0, 0, 0, -2, 0, 0, 0, -2, 0, 0, 0, -2, 0, 0; 0, 0, 1, 0, 0, 0, 1, 0, 0, 0, 1, 0, 0, 0, 0, 0, 0, 0, 0, -2, 0, 0, 0, -2, 0; 0, 0, 0, 1, 0, 0, 0, 1, 0, 0, 0, 1, 0, 0, 0, 1, 0, 0, 0, 0, 0, 0, 0, 0, -2; 0, 0, 0, 0, 1, 0, 0, 0, 1, 0, 0, 0, 1, 0, 0, 0, 1, 0, 0, 0, 1, 0, 0, 0, 0]]'
p1
tp2
Rp3
.