csage.libs.pari.gen_py
pari
p0
(S'[y^2 - 13, [2, 0], 13, 2, [[1, -2.30277563773199; 1, 1.30277563773199], [1, -2.30277563773199; 1, 1.30277563773199], [1, -2; 1, 1], [2, -1; -1, 7], [13, 7; 0, 1], [7, 1; 1, 2], [13, [7, 3; 1, 6]], []], [-3.60555127546399, 3.60555127546399], [1, 1/2*y - 1/2], [1, 1; 0, 2], [1, 0, 0, 3; 0, 1, 1, -1]]'
p1
tp2
Rp3
.