csage.libs.pari.gen_py
pari
p0
(S'[y^5 - y - 1, [1, 2], 2869, 1, [[1, 1.16730397826142, 1.36259857766493, -0.733891856627126, 0.856674883854503; 1, -0.764884433600585 + 0.352471546031726*I, 0.460812006002492 - 0.539199997693599*I, -0.915973659236537 - 1.07178847016644*I, -1.07838893263674 - 0.496939665147453*I; 1, 0.181232444469875 + 1.08395410131771*I, -1.14211129483496 + 0.392895302949911*I, 0.782919587550100 + 0.269330519649897*I, 0.150051490709485 - 0.897460326373394*I], [1, 1.16730397826142, 1.36259857766493, -0.733891856627126, 0.856674883854503; 1, -0.412412887568858, -0.0783879916911067, -1.98776212940297, -1.57532859778419; 1, -1.11735597963231, 1.00001200369609, 0.155814810929900, -0.581449267489284; 1, 1.26518654578759, -0.749215991885048, 1.05225010720000, -0.747408835663909; 1, -0.902721656847835, -1.53500659778487, 0.513589067900203, 1.04751181708288], [1, 1, 1, -1, 1; 1, 0, 0, -2, -2; 1, -1, 1, 0, -1; 1, 1, -1, 1, -1; 1, -1, -2, 1, 1], [5, 0, 0, -1, -1; 0, 0, 0, 1, 5; 0, 0, 4, -5, 0; -1, 1, -5, 1, 1; -1, 5, 0, 1, 1], [2869, 2153, 895, 1263, 2296; 0, 1, 0, 0, 0; 0, 0, 1, 0, 0; 0, 0, 0, 1, 0; 0, 0, 0, 0, 1], [561, 125, -100, -80, 16; 125, -100, 80, 64, 561; -100, 80, -64, -625, 125; -80, 64, -625, -500, 100; 16, 561, 125, 100, -20], [2869, [573, 1, 716, -711, 1263; 1263, 573, 1, -5, 711; 711, 1263, 573, 4, 5; -5, -711, -1263, 577, 4; 1, 716, 1974, -1263, 573]], []], [1.16730397826142, -0.764884433600585 + 0.352471546031726*I, 0.181232444469875 + 1.08395410131771*I], [1, y, y^2, y^4 - y^3 - 1, y^4 - 1], [1, 0, 0, 0, 1; 0, 1, 0, 0, 0; 0, 0, 1, 0, 0; 0, 0, 0, -1, 0; 0, 0, 0, 1, 1], [1, 0, 0, 0, 0, 0, 0, 0, 0, 1, 0, 0, 1, -1, 0, 0, 0, -1, 0, 0, 0, 1, 0, 0, 0; 0, 1, 0, 0, 0, 1, 0, 0, 0, 0, 0, 0, 0, 0, 1, 0, 0, 0, 1, 0, 0, 0, 1, 0, 0; 0, 0, 1, 0, 0, 0, 1, 0, 0, 0, 1, 0, 0, 0, 0, 0, 0, 0, -1, -1, 0, 0, 0, -1, 0; 0, 0, 0, 1, 0, 0, 0, -1, 0, 0, 0, -1, 0, 0, 0, 1, 0, 0, -1, -1, 0, 0, 0, -1, -1; 0, 0, 0, 0, 1, 0, 0, 1, -1, 0, 0, 1, 1, 0, 0, 0, -1, 0, 0, 0, 1, 0, 0, 0, 0]]'
p1
tp2
Rp3
.