csage.libs.pari.gen_py
pari
p0
(S'[y^3 - 28*y + 1, [3, 0], 87781, 1, [[1, -5.30927017626242, 9.18834980454959; 1, 0.0357159128629456, -18.9987243735684; 1, 5.27355426339947, 8.81037456901878], [1, -5.30927017626242, 9.18834980454959; 1, 0.0357159128629456, -18.9987243735684; 1, 5.27355426339947, 8.81037456901878], [1, -5, 9; 1, 0, -19; 1, 5, 9], [3, 0, -1; 0, 56, -3; -1, -3, 523], [87781, 48593, 29270; 0, 1, 0; 0, 0, 1], [29279, 3, 56; 3, 1568, 9; 56, 9, 168], [87781, [-29260, 744571, -39017; 39188, -29251, 352691; 1, 39188, -29270]], []], [-5.30927017626242, 0.0357159128629456, 5.27355426339947], [1, y, y^2 - 19], [1, 0, 19; 0, 1, 0; 0, 0, 1], [1, 0, 0, 0, 19, -1, 0, -1, 171; 0, 1, 0, 1, 0, 9, 0, 9, -1; 0, 0, 1, 0, 1, 0, 1, 0, -10]]'
p1
tp2
Rp3
.