csage.libs.pari.gen_py
pari
p0
(S'[y^6 - 3*y^2 - y - 1, [2, 2], 682121, 1, [[1, -1.29629439137726, -0.771429705051442, 1.68037914911615, 1.59510378983575, -1.40683636133512; 1, 1.43052084086116, 0.699046089673192, 2.04638987613812, 1.48866543548738, 2.22835727666967; 1, -0.177400558716646 + 0.549532272578669*I, -0.532004818132907 - 1.64798701225255*I, -0.270514760372499 - 0.194974664376568*I, -1.43283206603646 + 1.75347406147762*I, 0.687139158174206 + 1.53391903561497*I; 1, 0.110287333974698 + 1.26689898898447*I, 0.0681966258220316 - 0.783392191943869*I, -1.59286975225463 + 0.279445823820676*I, 0.390947453374890 - 0.106849408371794*I, -0.597899615841480 - 1.20379355187193*I], [1, -1.29629439137726, -0.771429705051442, 1.68037914911615, 1.59510378983575, -1.40683636133512; 1, 1.43052084086116, 0.699046089673192, 2.04638987613812, 1.48866543548738, 2.22835727666967; 1, 0.372131713862023, -2.17999183038546, -0.465489424749067, 0.320641995441163, 2.22105819378918; 1, -0.726932831295315, 1.11598219411964, -0.0755400959959308, -3.18630612751408, -0.846779877440763; 1, 1.37718632295917, -0.715195566121838, -1.31342392843396, 0.284098045003096, -1.80169316771341; 1, -1.15661165500978, 0.851588817765901, -1.87231557607531, 0.497796861746685, 0.605893936030449], [1, -1, -1, 2, 2, -1; 1, 1, 1, 2, 1, 2; 1, 0, -2, 0, 0, 2; 1, -1, 1, 0, -3, -1; 1, 1, -1, -1, 0, -2; 1, -1, 1, -2, 0, 1], [6, 0, -1, 0, 1, 1; 0, 0, 6, 0, -1, 6; -1, 6, -5, 0, 7, 5; 0, 0, 0, 12, 6, 5; 1, -1, 7, 6, 3, -7; 1, 6, 5, 5, -7, 1], [682121, 506784, 236988, 129901, 484632, 194459; 0, 1, 0, 0, 0, 0; 0, 0, 1, 0, 0, 0; 0, 0, 0, 1, 0, 0; 0, 0, 0, 0, 1, 0; 0, 0, 0, 0, 0, 1], [110299, -898, -6065, -6528, 7026, 7236; -898, -11916, 66883, -31932, 21829, 50442; -6065, 66883, 8874, -22727, 46404, -1140; -6528, -31932, -22727, 50442, -5388, 21829; 7026, 21829, 46404, -5388, 43416, -39168; 7236, 50442, -1140, 21829, -39168, -5388], [682121, [-318481, 332568, 168699, -320390, -163162, 366947; 304176, -369436, -196729, 456591, 428199, -320390; 208545, -123661, -267526, 231470, 241767, 5537; -196729, 304176, 124023, -369436, -247684, 332568; -50955, 124023, 135477, -196729, -403003, 168699; 124023, -196729, -50955, 304176, 259500, -318481]], []], [-1.29629439137726, 1.43052084086116, -0.177400558716646 + 0.549532272578669*I, 0.110287333974698 + 1.26689898898447*I], [1, y, y^5 - 3*y - 1, y^2, -y^5 + y^4 + 3*y - 1, -y^5 + y^3 + 3*y + 1], [1, 0, 0, 0, 2, 1; 0, 1, 0, 0, 0, 3; 0, 0, 0, 1, 1, 1; 0, 0, 1, 0, 0, 0; 0, 0, 0, 0, 1, 0; 0, 0, 0, 1, 0, 0], [1, 0, 0, 0, 0, 0, 0, 0, 1, 0, 0, 1, 0, 1, -1, 0, 1, 1, 0, 0, 0, 2, 1, 1, 0, 0, 1, 1, 1, -1, 0, 1, 1, 1, -1, 0; 0, 1, 0, 0, 0, 0, 1, 0, 0, 0, 1, 0, 0, 0, 0, 1, 0, 0, 0, 0, 1, 0, 0, 2, 0, 1, 0, 0, 0, 1, 0, 0, 0, 2, 1, 1; 0, 0, 1, 0, 0, 0, 0, 0, 0, 1, 1, 1, 1, 0, 0, 0, -1, 0, 0, 1, 0, 1, 0, 1, 0, 1, -1, 0, 2, 2, 0, 1, 0, 1, 2, 0; 0, 0, 0, 1, 0, 0, 0, 1, 0, 0, 0, 0, 0, 0, 0, 0, 0, 1, 1, 0, 0, 0, 1, 0, 0, 0, 0, 1, 1, 0, 0, 0, 1, 0, 0, 1; 0, 0, 0, 0, 1, 0, 0, 0, 0, 0, 0, 1, 0, 0, 1, 0, -1, -1, 0, 0, 0, 1, 0, 0, 1, 0, -1, 0, 0, 1, 0, 1, -1, 0, 1, 1; 0, 0, 0, 0, 0, 1, 0, 0, 0, 1, 0, 0, 0, 0, 0, 0, 1, 0, 0, 1, 0, 0, 0, 0, 0, 0, 1, 0, -1, 0, 1, 0, 0, 0, 0, 0]]'
p1
tp2
Rp3
.