csage.libs.pari.gen_py
pari
p0
(S'[y^2 - 3, [2, 0], 12, 1, [[1, -1.73205080756888; 1, 1.73205080756888], [1, -1.73205080756888; 1, 1.73205080756888], [1, -2; 1, 2], [2, 0; 0, 6], [6, 0; 0, 2], [3, 0; 0, 1], [3, [0, 3; 1, 0]], []], [-1.73205080756888, 1.73205080756888], [1, y], [1, 0; 0, 1], [1, 0, 0, 3; 0, 1, 1, 0]]'
p1
tp2
Rp3
.