csage.libs.pari.gen_py
pari
p0
(S'[y^3 - 24*y + 1, [3, 0], 55269, 1, [[1, -4.91968141190962, 8.20326519468907; 1, 0.0416696814027437, -15.9982636376518; 1, 4.87801173050688, 7.79499844296273], [1, -4.91968141190962, 8.20326519468907; 1, 0.0416696814027437, -15.9982636376518; 1, 4.87801173050688, 7.79499844296273], [1, -5, 8; 1, 0, -16; 1, 5, 8], [3, 0, 0; 0, 48, -3; 0, -3, 384], [6141, 5757, 24; 0, 3, 0; 0, 0, 3], [2047, 0, 0; 0, 128, 1; 0, 1, 16], [2047, [0, 2047, 0; 128, 8, 1023; 1, 128, -8]], []], [-4.91968141190962, 0.0416696814027437, 4.87801173050688], [1, y, y^2 - 16], [1, 0, 16; 0, 1, 0; 0, 0, 1], [1, 0, 0, 0, 16, -1, 0, -1, 128; 0, 1, 0, 1, 0, 8, 0, 8, -1; 0, 0, 1, 0, 1, 0, 1, 0, -8]]'
p1
tp2
Rp3
.