csage.libs.pari.gen_py
pari
p0
(S'[y^3 + 3*y + 5, [1, 1], -87, 3, [[1, 0.392646781702641, -1.54681827688408; 1, -0.696323390851320 + 1.43594986410996*I, 1.27340913844204 + 0.563821092829119*I], [1, 0.392646781702641, -1.54681827688408; 1, 0.739626473258636, 1.83723023127116; 1, -2.13227325496128, 0.709588045612922], [1, 0, -2; 1, 1, 2; 1, -2, 1], [3, -1, 1; -1, -3, -4; 1, -4, 5], [87, 25, 79; 0, 1, 0; 0, 0, 1], [31, -1, -7; -1, -14, -11; -7, -11, 10], [87, [8, -26, -23; 25, -16, 26; 1, -25, 8]], []], [-1.15417149518144, 0.577085747590721 + 1.99977095693907*I], [1, 1/3*y^2 + 1/3*y + 1/3, -1/3*y^2 + 2/3*y - 1/3], [1, 0, -1; 0, 1, 2; 0, 1, -1], [1, 0, 0, 0, -1, -1, 0, -1, 2; 0, 1, 0, 1, -1, 1, 0, 1, 1; 0, 0, 1, 0, -1, 0, 1, 0, 0]]'
p1
tp2
Rp3
.