csage.libs.pari.gen_py
pari
p0
(S'[y^8 + 17*y + 1, [2, 3], -5744836193456247, 1, [[1, -1.49032146230282, 2.22105806100042, -3.31009049732962, 4.93309891033496, -1.32900382548688, -7.35190318173486, 10.9566991005119; 1, -0.0588235294201973, 0.00346020761344881, -0.000203541624349697, 1.19730367281691 E-5, 14.9999999975630, -7.04296278228560 E-7, 4.14291928429131 E-8; 1, 1.35871761137580 + 0.650434001692099*I, 1.42304915690557 + 1.76751226627339*I, 0.783871874949017 + 3.32714960223907*I, -1.09903070845723 + 5.03051368068119*I, -2.59877085380153 + 0.286638606340256*I, -4.76528952291598 + 6.12020059052411*I, -10.4554693593435 + 5.21611799388602*I; 1, -0.926042045641056 + 1.17205636286284*I, -0.516162247432207 - 2.17074694374425*I, 3.02222571107532 + 1.40523169398149*I, -4.44571882810072 + 2.24091524217925*I, -1.58497086833412 + 0.525286661477340*I, 1.49044358968683 - 7.28581477495049*I, 7.15917213491465 + 8.49385471113756*I; 1, 0.341896930126763 + 1.46151960459325*I, -2.01914604378030 + 0.999378132261023*I, -2.15095056654735 - 2.60933721206594*I, 3.07819409487210 - 4.03578080399078*I, -2.15175636390241 + 0.648718609093467*I, 6.95079787624472 + 3.11901994884978*I, -2.18205234654169 + 11.2251107092127*I], [1, -1.49032146230282, 2.22105806100042, -3.31009049732962, 4.93309891033496, -1.32900382548688, -7.35190318173486, 10.9566991005119; 1, -0.0588235294201973, 0.00346020761344881, -0.000203541624349697, 1.19730367281691 E-5, 14.9999999975630, -7.04296278228560 E-7, 4.14291928429131 E-8; 1, 2.00915161306790, 3.19056142317896, 4.11102147718808, 3.93148297222396, -2.31213224746127, 1.35491106760813, -5.23935136545746; 1, 0.708283609683704, -0.344463109367817, -2.54327772729005, -6.12954438913842, -2.88540946014178, -10.8854901134401, -15.6715873532295; 1, 0.246014317221788, -2.68690919117645, 4.42745740505681, -2.20480358592147, -1.05968420685678, -5.79537118526366, 15.6530268460522; 1, -2.09809840850390, 1.65458469631204, 1.61699401709383, -6.68663407027997, -2.11025752981146, 8.77625836463731, -1.33468257622291; 1, 1.80341653472001, -1.01976791151928, -4.76028777861329, -0.957586709118675, -1.50303775480894, 10.0698178250945, 9.04305836267096; 1, -1.11962267446649, -3.01852417604132, 0.458386645518591, 7.11397489886288, -2.80047497299588, 3.83177792739494, -13.4071630557543], [1, -1, 2, -3, 5, -1, -7, 11; 1, 0, 0, 0, 0, 15, 0, 0; 1, 2, 3, 4, 4, -2, 1, -5; 1, 1, 0, -3, -6, -3, -11, -16; 1, 0, -3, 4, -2, -1, -6, 16; 1, -2, 2, 2, -7, -2, 9, -1; 1, 2, -1, -5, -1, -2, 10, 9; 1, -1, -3, 0, 7, -3, 4, -13], [8, 0, 0, 0, 0, 1, 0, 0; 0, 0, 0, 0, 0, -8, 0, -119; 0, 0, 0, 0, 0, 0, -119, -8; 0, 0, 0, 0, -119, 0, -8, 0; 0, 0, 0, -119, -8, 0, 0, 0; 1, -8, 0, 0, 0, 253, 0, 0; 0, 0, -119, -8, 0, 0, 0, 0; 0, -119, -8, 0, 0, 0, 0, 0], [5744836193456247, 386207475190336, 4946457715331687, 4977817811407846, 4444674291268115, 718104524182018, 280509579759076, 1525972113886784; 0, 1, 0, 0, 0, 0, 0, 0; 0, 0, 1, 0, 0, 0, 0, 0; 0, 0, 0, 1, 0, 0, 0, 0; 0, 0, 0, 0, 1, 0, 0, 0; 0, 0, 0, 0, 0, 1, 0, 0; 0, 0, 0, 0, 0, 0, 1, 0; 0, 0, 0, 0, 0, 0, 0, 1], [718459494288941, -262144, 3899392, -58003456, 862801408, -2839760855281, -12834170944, 190908292792; -262144, 66289664, -986058752, 14667623936, -218180906048, 2097152, 3245440977464, -48275934539777; 3899392, -986058752, 14667623936, -218180906048, 3245440977464, -31195136, -48275934539777, 2097152; -58003456, 14667623936, -218180906048, 3245440977464, -48275934539777, 464027648, 2097152, -31195136; 862801408, -218180906048, 3245440977464, -48275934539777, 2097152, -6902411264, -31195136, 464027648; -2839760855281, 2097152, -31195136, 464027648, -6902411264, 22718086842248, 102673367552, -1527266342336; -12834170944, 3245440977464, -48275934539777, 2097152, -31195136, 102673367552, 464027648, -6902411264; 190908292792, -48275934539777, 2097152, -31195136, 464027648, -1527266342336, -6902411264, 102673367552], [5744836193456247, [1825182332295997, 26091131045280455, -21016123441607447, 15219765872784422, -39112889778313061, 77357061841963277, 6539788654592105, -23901753775264478; 1634435818059673, -3440917511705533, 29921021840917951, -24073599286864273, 17452899712172800, -2654088140488729, -44476817338047361, 7769355645853339; -614783495630617, 1634435818059673, -3440917511705533, 29921021840917951, -24073599286864273, -1452396788605916, 17452899712172800, -44476817338047361; 2681963779867150, -614783495630617, 1634435818059673, -3440917511705533, 29921021840917951, -4247360640040111, -24073599286864273, 17452899712172800; -1116566919694189, 2681963779867150, -614783495630617, 1634435818059673, -3440917511705533, 704395916759965, 29921021840917951, -24073599286864273; 2633049922000765, -1914945397818748, 1528737922628413, -1116566919694189, 2681963779867150, 36054831318305942, -614783495630617, 1634435818059673; 1528737922628413, -1116566919694189, 2681963779867150, -614783495630617, 1634435818059673, -1142530447438078, -3440917511705533, 29921021840917951; -1914945397818748, 1528737922628413, -1116566919694189, 2681963779867150, -614783495630617, 1196840873636731, 1634435818059673, -3440917511705533]], []], [-1.49032146230282, -0.0588235294201973, 1.35871761137580 + 0.650434001692099*I, -0.926042045641056 + 1.17205636286284*I, 0.341896930126763 + 1.46151960459325*I], [1, y, y^2, y^3, y^4, y^7 + 15, y^5, y^6], [1, 0, 0, 0, 0, 0, 0, -15; 0, 1, 0, 0, 0, 0, 0, 0; 0, 0, 1, 0, 0, 0, 0, 0; 0, 0, 0, 1, 0, 0, 0, 0; 0, 0, 0, 0, 1, 0, 0, 0; 0, 0, 0, 0, 0, 0, 0, 1; 0, 0, 0, 0, 0, 1, 0, 0; 0, 0, 0, 0, 0, 0, 1, 0], [1, 0, 0, 0, 0, 0, 0, 0, 0, 0, 0, 0, 0, -1, 0, -15, 0, 0, 0, 0, 0, 0, -15, -1, 0, 0, 0, 0, -15, 0, -1, 0, 0, 0, 0, -15, -1, 0, 0, 0, 0, -1, 0, 0, 0, 30, 0, 0, 0, 0, -15, -1, 0, 0, 0, 0, 0, -15, -1, 0, 0, 0, 0, 0; 0, 1, 0, 0, 0, 0, 0, 0, 1, 0, 0, 0, 0, -2, 0, 0, 0, 0, 0, 0, 0, -1, 0, -17, 0, 0, 0, 0, 0, 0, -17, -1, 0, 0, 0, 0, -17, 0, -1, 0, 0, -2, -1, 0, 0, 0, 0, 0, 0, 0, 0, -17, -1, 0, 0, 0, 0, 0, -17, -1, 0, 0, 0, 0; 0, 0, 1, 0, 0, 0, 0, 0, 0, 1, 0, 0, 0, 0, 0, 0, 1, 0, 0, 0, 0, -2, 0, 0, 0, 0, 0, 0, 0, -1, 0, -17, 0, 0, 0, 0, 0, 0, -17, -1, 0, 0, -2, -1, 0, 0, 0, 0, 0, 0, 0, 0, -17, 0, -1, 0, 0, 0, 0, -17, -1, 0, 0, 0; 0, 0, 0, 1, 0, 0, 0, 0, 0, 0, 1, 0, 0, 0, 0, 0, 0, 1, 0, 0, 0, 0, 0, 0, 1, 0, 0, 0, 0, -2, 0, 0, 0, 0, 0, 0, 0, -1, 0, -17, 0, 0, 0, -2, -1, 0, 0, 0, 0, 0, 0, 0, 0, 0, -17, -1, 0, 0, 0, 0, -17, 0, -1, 0; 0, 0, 0, 0, 1, 0, 0, 0, 0, 0, 0, 1, 0, 0, 0, 0, 0, 0, 1, 0, 0, 0, 0, 0, 0, 1, 0, 0, 0, 0, 0, 0, 1, 0, 0, 0, 0, -2, 0, 0, 0, 0, 0, 0, -2, 0, -1, 0, 0, 0, 0, 0, 0, -1, 0, -17, 0, 0, 0, 0, 0, 0, -17, -1; 0, 0, 0, 0, 0, 1, 0, 0, 0, 0, 0, 0, 0, 0, 0, 1, 0, 0, 0, 0, 0, 0, 1, 0, 0, 0, 0, 0, 1, 0, 0, 0, 0, 0, 0, 1, 0, 0, 0, 0, 1, 0, 0, 0, 0, 13, 0, 0, 0, 0, 1, 0, 0, 0, 0, 0, 0, 1, 0, 0, 0, 0, 0, 0; 0, 0, 0, 0, 0, 0, 1, 0, 0, 0, 0, 0, 1, 0, 0, 0, 0, 0, 0, 1, 0, 0, 0, 0, 0, 0, 1, 0, 0, 0, 0, 0, 0, 1, 0, 0, 0, 0, 0, 0, 0, 0, 0, 0, 0, 0, -2, -1, 1, 0, 0, 0, 0, -2, 0, 0, 0, 0, 0, 0, 0, -1, 0, -17; 0, 0, 0, 0, 0, 0, 0, 1, 0, 0, 0, 0, 0, 0, 1, 0, 0, 0, 0, 0, 1, 0, 0, 0, 0, 0, 0, 1, 0, 0, 0, 0, 0, 0, 1, 0, 0, 0, 0, 0, 0, 0, 0, 0, 0, -1, 0, -2, 0, 1, 0, 0, 0, 0, 0, 0, 1, 0, 0, 0, 0, -2, 0, 0]]'
p1
tp2
Rp3
.