csage.libs.cypari2.gen
objtogen
p0
(S'[y^11 + 121*y + 22, [1, 5], -628107640004825273189479894784, 36, [[1, -0.181818181758859, 0.0330578512180973, -0.00601051840132932, 0.00109282152715786, 9.15384615435584, -0.000198694823054781, 3.61263314527184 E-5, -30.4929051504861, 42.7109783429145, -51.8648310656943; 1, 1.55351871376432 + 0.499480112820723*I, 2.16394001091256 + 1.55190340484022*I, 2.58657641467957 + 3.49175598216173*I, 2.27423219287357 + 6.71645174161035*I, -12.9493839089456 + 10.7827964521531*I, 0.178328197419894 + 11.5700672229637*I, -5.50198228998558 + 18.0633873385517*I, -8.63948421749829 + 9.52698507657096*I, 5.58141253094214 + 3.05194911565987*I, -10.2017638180732 + 11.4789339616610*I; 1, -1.51699035245764 + 0.499601613208270*I, 2.05165795752925 - 1.51578165461844*I, -2.35505836819595 + 3.32443777182165*I, 1.91170635021529 - 6.21973098714956*I, 3.58688048753279 + 0.910457558539046*I, 0.207347544892780 + 10.3903634789358*I, -5.50558658110473 - 15.6584899881506*I, -14.7502167566458 - 10.8923277194986*I, -10.4447543424069 + 5.05772369670710*I, 23.0328024415158 + 15.0349970532551*I; 1, 0.967003015002416 + 1.30769947974956*I, -0.774983098313504 + 2.52909867926983*I, -4.05671201976152 + 1.43220105361328*I, -5.79574132681279 - 3.92001746080224*I, -0.768600094341137 + 9.17058138088517*I, -0.478294543101791 - 11.3697566212940*I, 14.4057125533066 - 11.6200544578162*I, 3.39301147736268 + 13.0245789955655*I, 11.7219802268728 - 7.79216429612694*I, 18.1725265089218 + 6.22329803142195*I; 1, -0.930703961293003 + 1.30789079351610*I, -0.844368464197690 - 2.43451828492817*I, 3.96994112592384 + 1.16147407096340*I, -5.21392117631802 + 4.11126093061198*I, 3.26031850455459 + 2.88601021247277*I, -0.524463228221194 - 10.6456063386547*I, 14.4114105257811 + 9.22196736202361*I, 16.7022979208308 - 25.6769748349082*I, -31.0115569499086 - 10.3697762336855*I, 2.27715537029321 + 17.7493956147127*I; 1, 0.0180816758633338 + 1.61650928810870*I, -2.61277533153966 + 0.0584583939552998*I, -0.141741893445274 - 4.22251856544416*I, 6.82317754927837 - 0.305477299295670*I, 2.29386193402146 + 5.42260825489217*I, 0.617181376421839 + 11.0242063413138*I, -17.8095722711632 + 1.19701555314776*I, 18.5408441511937 + 10.5360076048219*I, 2.79742936304328 - 25.0032186848959*I, -7.34830496981045 - 9.18708451633922*I], [1, -0.181818181758859, 0.0330578512180973, -0.00601051840132932, 0.00109282152715786, 9.15384615435584, -0.000198694823054781, 3.61263314527184 E-5, -30.4929051504861, 42.7109783429145, -51.8648310656943; 1, 2.05299882658505, 3.71584341575277, 6.07833239684130, 8.99068393448392, -2.16658745679253, 11.7483954203836, 12.5614050485661, 0.887500859072668, 8.63336164660201, 1.27717014358779; 1, 1.05403860094360, 0.612036606072339, -0.905179567482154, -4.44221954873677, -23.7321803610987, -11.3917390255438, -23.5653696285373, -18.1664692940692, 2.52946341528227, -21.6806977797342; 1, -1.01738873924937, 0.535876302910813, 0.969379403625700, -4.30802463693427, 4.49733804607183, 10.5977110238286, -21.1640765692553, -25.6425444761444, -5.38703064569980, 38.0677994947709; 1, -2.01659196566591, 3.56743961214769, -5.67949614001761, 8.13143733736485, 2.67642292899374, -10.1830159340430, 10.1529034070458, -3.85788903714723, -15.5024780391140, 7.99780538826070; 1, 2.27470249475197, 1.75411558095632, -2.62451096614824, -9.71575878761503, 8.40198128654404, -11.8480511643958, 2.78565809549038, 16.4175904729282, 3.92981593074589, 24.3958245403437; 1, -0.340696464747143, -3.30408177758333, -5.48891307337480, -1.87572386601055, -9.93918147522631, 10.8914620781922, 26.0257670111228, -9.63156751820283, 19.5141445229998, 11.9492284774998; 1, 0.377186832223099, -3.27888674912586, 5.13141519688724, -1.10266024570604, 6.14632871702735, -11.1700695668759, 23.6333778878047, -8.97467691407744, -41.3813331835941, 20.0265509850059; 1, -2.23859475480910, 1.59014982073048, 2.80846705496043, -9.32518210693001, 0.374308292081822, 10.1211431104335, 5.18944316375752, 42.3792727557390, -20.6417807162231, -15.4722402444195; 1, 1.63459096397203, -2.55431693758436, -4.36426045888943, 6.51770024998270, 7.71647018891363, 11.6413877177356, -16.6125567180154, 29.0768517560156, -22.2057893218526, -16.5353894861497; 1, -1.59842761224536, -2.67123372549496, 4.08077667199889, 7.12865484857404, -3.12874632087071, -10.4070249648919, -19.0065878243109, 8.00483654637176, 27.8006480479392, 1.83877954652877], [1, 0, 0, 0, 0, 9, 0, 0, -30, 43, -52; 1, 2, 4, 6, 9, -2, 12, 13, 1, 9, 1; 1, 1, 1, -1, -4, -24, -11, -24, -18, 3, -22; 1, -1, 1, 1, -4, 4, 11, -21, -26, -5, 38; 1, -2, 4, -6, 8, 3, -10, 10, -4, -16, 8; 1, 2, 2, -3, -10, 8, -12, 3, 16, 4, 24; 1, 0, -3, -5, -2, -10, 11, 26, -10, 20, 12; 1, 0, -3, 5, -1, 6, -11, 24, -9, -41, 20; 1, -2, 2, 3, -9, 0, 10, 5, 42, -21, -15; 1, 2, -3, -4, 7, 8, 12, -17, 29, -22, -17; 1, -2, -3, 4, 7, -3, -10, -19, 8, 28, 2], [11, 0, 0, 0, 0, 0, 0, 0, 0, 0, 0; 0, 0, 0, 0, 0, -121, 0, 0, 0, 242, -121; 0, 0, 0, 0, 0, -121, 0, 0, -484, 0, 121; 0, 0, 0, 0, 0, -121, 0, 0, 242, -484, -605; 0, 0, 0, 0, 0, -121, 0, -1210, 0, 242, -363; 0, -121, -121, -121, -121, 0, -121, -121, -363, 363, -484; 0, 0, 0, 0, 0, -121, -1210, -242, -484, 0, 121; 0, 0, 0, 0, -1210, -121, -242, 0, 242, -484, 605; 0, 0, -484, 242, 0, -363, -484, 242, 484, -1694, 2057; 0, 242, 0, -484, 242, 363, 0, -484, -1694, 2662, -2783; 0, -121, 121, -605, -363, -484, 121, 605, 2057, -2783, 3146], [80234858, 16047020, 77025454, 32735824, 41593750, 80233769, 71916108, 1663750, 57318184, 34657425, 0; 0, 242, 0, 0, 0, 0, 0, 0, 0, 0, 11; 0, 0, 242, 0, 0, 0, 0, 0, 0, 0, 0; 0, 0, 0, 242, 0, 0, 0, 0, 0, 0, 0; 0, 0, 0, 0, 242, 0, 0, 0, 0, 121, 11; 0, 0, 0, 0, 0, 121, 0, 0, 0, 0, 88; 0, 0, 0, 0, 0, 0, 242, 0, 0, 121, 0; 0, 0, 0, 0, 0, 0, 0, 242, 0, 121, 0; 0, 0, 0, 0, 0, 0, 0, 0, 242, 0, 11; 0, 0, 0, 0, 0, 0, 0, 0, 0, 121, 0; 0, 0, 0, 0, 0, 0, 0, 0, 0, 0, 11], [7294078, 0, 0, 0, 0, 0, 0, 0, 0, 0, 0; 0, 6028, -13020, 65100, 6049, -385272, -13125, 65625, 97174, 140625, 3424; 0, -13020, 132625, -27, 135, -119809, 66850, -2701, -132446, -53152, 13505; 0, 65100, -27, 135, -675, -64053, -2701, 13505, -868, -65789, -67525; 0, 6049, 135, -675, 3375, -11284, 13505, -67525, 4340, -2604, 6076; 0, -385272, -119809, -64053, -11284, 21125, -455, 2275, -8125, 4875, -11375; 0, -13125, 66850, -2701, 13505, -455, -66300, -49, 175, -105, 245; 0, 65625, -2701, 13505, -67525, 2275, -49, 245, -875, 525, -1225; 0, 97174, -132446, -868, 4340, -8125, 175, -875, 3125, -1875, 4375; 0, 140625, -53152, -65789, -2604, 4875, -105, 525, -1875, 1125, -2625; 0, 3424, 13505, -67525, 6076, -11375, 245, -1225, 4375, -2625, 6125], [7294078, [0, 80234858, 80234858, -80234858, 160469716, 182351950, -240704574, -240704574, -882583438, 1320228118, -1743284642; 852501, -26097632, 94207278, 84734452, -87699447, -59963487, 175821382, -270033588, 174484412, -218980238, 17846273; -615461, 2510245, -25699773, 91210075, 83875077, -56597695, -91174611, 179434046, -71920838, -91759833, -123326930; 3077305, -615461, 2510245, -25699773, 91210075, -23362801, 83875077, -91174611, -161922387, 185271240, 17525607; -798369, 3077305, -615461, 2510245, -25699773, -29067555, 91210075, 83875077, 215144578, -102125386, 40018330; -47366, -6555197, 2769855, -553971, 15428358, 63231114, 20255378, 17300680, -112949890, 178258256, -263184701; 2997203, 859375, 3475164, -3612664, 1650870, 12386671, -29174937, 94822739, -41148074, -30176641, 100014177; -397859, 2997203, 859375, 3475164, -3612664, 11007425, 1650870, -29174937, -9434931, 81589464, 2225850; -2226114, 3362854, -3590202, 5823895, 2482260, 1847208, -496452, -5735972, 23702348, -112070298, 116144590; 2794484, 170511, -763510, 7446780, -1489356, 32444434, -2619760, -1465342, 9384880, -27315596, -26916933; -1657744, -397859, 2997203, 859375, 3475164, -7625618, -3612664, 1650870, 116468396, -123478278, 101928959]], []], [-0.181818181758859, 1.55351871376432 + 0.499480112820723*I, -1.51699035245764 + 0.499601613208270*I, 0.967003015002416 + 1.30769947974956*I, -0.930703961293003 + 1.30789079351610*I, 0.0180816758633338 + 1.61650928810870*I], [1, y, y^2, y^3, y^4, 1/12*y^10 + 1/12*y^9 + 1/12*y^8 + 1/12*y^7 + 1/12*y^6 + 1/12*y^5 + 1/12*y^4 + 1/12*y^3 + 1/12*y^2 + 1/12*y + 55/6, y^5, y^6, -5/18*y^10 + 1/18*y^9 + 7/18*y^8 - 5/18*y^7 + 1/18*y^6 + 7/18*y^5 - 5/18*y^4 + 1/18*y^3 + 7/18*y^2 - 5/18*y - 275/9, 7/18*y^10 - 5/18*y^9 + 1/18*y^8 + 7/18*y^7 - 5/18*y^6 + 1/18*y^5 + 7/18*y^4 - 5/18*y^3 + 1/18*y^2 + 7/18*y + 385/9, -17/36*y^10 + 7/36*y^9 - 5/36*y^8 + 19/36*y^7 + 7/36*y^6 - 5/36*y^5 - 17/36*y^4 + 7/36*y^3 - 5/36*y^2 - 17/36*y - 935/18], [1, 0, 0, 0, 0, 0, 0, 0, 0, 0, -110; 0, 1, 0, 0, 0, 0, 0, 0, 0, 0, -1; 0, 0, 1, 0, 0, 0, 0, 0, -1, 0, 0; 0, 0, 0, 1, 0, 0, 0, 0, 0, -1, 0; 0, 0, 0, 0, 1, 0, 0, 0, 0, 0, -1; 0, 0, 0, 0, 0, 0, 0, 1, 2, 6, 3; 0, 0, 0, 0, 0, 1, 0, 0, -1, 0, 0; 0, 0, 0, 0, 0, 0, 1, 0, 0, -1, 0; 0, 0, 0, 0, 0, 0, 0, 0, 2, -1, -1; 0, 0, 0, 0, 0, 0, 0, 1, 1, -2, 0; 0, 0, 0, 0, 0, 0, 0, 1, 0, 0, -1], [1, 0, 0, 0, 0, 0, 0, 0, 0, 0, 0, 0, 0, 0, 0, 0, -11, 0, 0, 0, 22, -11, 0, 0, 0, 0, 0, -11, 0, 0, -44, 0, 11, 0, 0, 0, 0, 0, -11, 0, 0, 22, -44, -55, 0, 0, 0, 0, 0, -11, 0, -110, 0, 22, -33, 0, -11, -11, -11, -11, 0, -11, -11, -33, 33, -44, 0, 0, 0, 0, 0, -11, -110, -22, -44, 0, 11, 0, 0, 0, 0, -110, -11, -22, 0, 22, -44, 55, 0, 0, -44, 22, 0, -33, -44, 22, 44, -154, 187, 0, 22, 0, -44, 22, 33, 0, -44, -154, 242, -253, 0, -11, 11, -55, -33, -44, 11, 55, 187, -253, 286; 0, 1, 0, 0, 0, 0, 0, 0, 0, 0, 0, 1, 0, 0, 0, 0, -1, 0, 0, 3, -4, 5, 0, 0, 0, 0, 0, -12, 0, 0, -1, 25, -13, 0, 0, 0, 0, 0, -12, 0, 0, -48, -1, 12, 0, 0, 0, 0, 0, -12, 0, -1, 25, -48, -61, 0, -1, -12, -12, -12, -9, -12, -12, -6, -6, 3, 0, 0, 0, 0, 0, -12, -1, -121, -1, 25, -35, 0, 0, 0, 0, -1, -12, -121, -22, -48, -1, 13, 0, 3, -1, -48, 25, -6, -1, -48, -30, 69, -38, 0, -4, 25, -1, -48, -6, 25, -1, 69, -51, 9, 0, 5, -13, 12, -61, 3, -35, 13, -38, 9, 48; 0, 0, 1, 0, 0, 0, 0, 0, 0, 0, 0, 0, 1, 0, 0, 0, 0, 0, 0, 0, 0, -1, 1, 0, 0, 0, 0, -1, 0, -1, 3, -4, 5, 0, 0, 0, 0, 0, -12, -1, 0, -1, 25, -13, 0, 0, 0, 0, -1, -12, 0, 0, -48, -1, 13, 0, 0, -1, -12, -12, -6, -12, -12, -4, -4, -2, 0, 0, 0, -1, 0, -12, 0, 0, 25, -48, -61, 0, 0, -1, 0, 0, -12, 0, -121, -1, 25, -35, 0, 0, 3, -1, -48, -4, 25, -1, 46, -34, -10, 0, 0, -4, 25, -1, -4, -48, 25, -34, -20, 23, 0, -1, 5, -13, 13, -2, -61, -35, -10, 23, -8; 0, 0, 0, 1, 0, 0, 0, 0, 0, 0, 0, 0, 0, 1, 0, 0, 0, 0, 0, 0, 0, 0, 0, 1, 0, 0, 0, 0, 0, 0, 0, 0, -1, 1, 0, 0, 0, 0, -1, 0, -1, 3, -4, 5, 0, 0, 0, 0, 0, -12, -1, 0, -1, 25, -13, 0, 0, 0, -1, -12, -6, -12, -12, -4, -4, -2, 0, 0, 0, 0, -1, -12, 0, 0, -48, -1, 13, 0, 0, 0, -1, 0, -12, 0, 0, 25, -48, -61, 0, 0, 0, 3, -1, -4, -48, 25, -34, -20, 23, 0, 0, 0, -4, 25, -4, -1, -48, -20, 46, -17, 0, 0, -1, 5, -13, -2, 13, -61, 23, -17, -16; 0, 0, 0, 0, 1, 0, 0, 0, 0, 0, 0, 0, 0, 0, 1, 0, 0, 0, 0, 0, 0, 0, 0, 0, 1, 0, 0, 0, 0, 0, 0, 0, 0, 0, 1, 0, 0, 0, 0, 0, 0, 0, 0, -1, 1, 0, 0, 0, 0, -1, 0, -1, 3, -4, 5, 0, 0, 0, 0, -1, -6, -12, -12, -4, -4, -2, 0, 0, 0, 0, 0, -12, -1, 0, -1, 25, -13, 0, 0, 0, 0, -1, -12, 0, 0, -48, -1, 13, 0, 0, 0, 0, 3, -4, -1, -48, -20, 46, -17, 0, 0, 0, 0, -4, -4, 25, -1, 46, -34, -10, 0, 0, 0, -1, 5, -2, -13, 13, -17, -10, -49; 0, 0, 0, 0, 0, 1, 0, 0, 0, 0, 0, 0, 0, 0, 0, 0, 1, 0, 1, 2, 0, 1, 0, 0, 0, 0, 0, 1, 1, 2, 0, 2, 3, 0, 0, 0, 0, 1, 1, 2, 6, 0, 0, 2, 0, 0, 0, 1, 2, 1, 6, 3, 2, 0, -1, 1, 1, 1, 1, 1, -4, 1, 1, -7, 11, -7, 0, 0, 1, 2, 6, 1, 3, 0, 0, 2, -3, 0, 1, 2, 6, 3, 1, 0, 0, 0, 0, -1, 0, 2, 0, 0, 2, -7, 0, 0, 16, -13, 25, 0, 0, 2, 0, 0, 11, 2, 0, -13, 27, -42, 0, 1, 3, 2, -1, -7, -3, -1, 25, -42, 53; 0, 0, 0, 0, 0, 0, 1, 0, 0, 0, 0, 0, 0, 0, 0, 1, 0, 0, 0, 0, 0, -1, 0, 0, 0, 1, 0, 0, 0, -1, 0, 0, 0, 0, 0, 1, 0, 0, 0, -1, 0, 0, 0, 0, 0, 1, 0, 0, -1, 0, 0, 0, 0, 0, 0, 0, 0, 0, 0, 0, -3, -1, -12, -2, -2, -7, 1, 0, 0, -1, 0, -1, 0, 0, 3, -4, 5, 0, 0, -1, 0, 0, -12, 0, 0, -1, 25, -13, 0, 0, 0, 0, 0, -2, 3, -1, 23, -17, -29, 0, 0, 0, 0, 0, -2, -4, 25, -17, -10, 11, 0, -1, 0, 0, 0, -7, 5, -13, -29, 11, 9; 0, 0, 0, 0, 0, 0, 0, 1, 0, 0, 0, 0, 0, 0, 0, 0, 0, 1, 0, 0, 0, 0, 0, 0, 0, 0, 1, 0, 0, 0, 0, 0, -1, 0, 0, 0, 1, 0, 0, 0, -1, 0, 0, 0, 0, 0, 1, 0, 0, 0, -1, 0, 0, 0, 0, 0, 0, 0, 0, 0, -3, 0, -1, -2, -2, -7, 0, 1, 0, 0, -1, 0, 0, 0, 0, 0, 0, 1, 0, 0, -1, 0, -1, 0, 0, 3, -4, 5, 0, 0, 0, 0, 0, -2, 0, 3, -17, -10, 11, 0, 0, 0, 0, 0, -2, 0, -4, -10, 23, 4, 0, 0, -1, 0, 0, -7, 0, 5, 11, 4, -10; 0, 0, 0, 0, 0, 0, 0, 0, 1, 0, 0, 0, 0, 0, 0, 0, 0, 0, 0, -1, 1, 1, 0, 0, 0, 0, 0, 0, 0, 2, 0, -1, 0, 0, 0, 0, 0, 0, 0, 2, -1, 1, 0, -1, 0, 0, 0, 0, 2, 0, -1, -1, -1, 1, -1, 0, 0, 0, 0, 0, -3, 0, 0, 1, 2, 1, 0, 0, 0, 2, -1, 0, -1, 0, 0, -1, 1, 0, 0, 2, -1, -1, 0, 0, 0, 1, 0, 0, 1, -1, 0, 1, -1, 1, 0, 1, 0, 4, -6, 0, 1, -1, 0, 1, 2, -1, 0, 4, -23, 22, 0, 1, 0, -1, -1, 1, 1, 0, -6, 22, -24; 0, 0, 0, 0, 0, 0, 0, 0, 0, 1, 0, 0, 0, 0, 0, 0, 0, 0, 1, -1, 0, 1, 0, 0, 0, 0, 0, 0, 1, 1, 1, -1, -1, 0, 0, 0, 0, 1, 0, 1, -2, 0, 1, -1, 0, 0, 0, 1, 1, 0, -2, 0, -1, 0, 0, 0, 0, 0, 0, 0, -3, 0, 0, -6, 5, -3, 0, 0, 1, 1, -2, 0, 0, 0, 1, -1, 1, 0, 1, 1, -2, 0, 0, 0, 0, 0, 1, -1, 0, -1, 1, 0, -1, -6, 1, 0, 5, 7, 1, 1, 0, -1, 1, 0, 5, -1, 1, 7, -6, -3, 0, 1, -1, -1, 0, -3, 1, -1, 1, -3, 11; 0, 0, 0, 0, 0, 0, 0, 0, 0, 0, 1, 0, 0, 0, 0, 0, 0, 0, 1, 0, 0, 0, 0, 0, 0, 0, 0, 0, 1, 0, 0, 0, 0, 0, 0, 0, 0, 1, 0, 0, 0, 0, 0, -1, 0, 0, 0, 1, 0, 0, 0, -1, 0, 0, 0, 0, 0, 0, 0, 0, -3, 0, 0, -2, -2, 4, 0, 0, 1, 0, 0, 0, -1, 0, 0, 0, 0, 0, 1, 0, 0, -1, 0, 0, 0, 0, 0, 0, 0, 0, 0, 0, 0, -2, 0, 0, -10, 23, -18, 0, 0, 0, 0, 0, -2, 0, 0, 23, -17, 15, 1, 0, 0, -1, 0, 4, 0, 0, -18, 15, -14]]'
p1
tp2
Rp3
.