csage.libs.pari.gen_py
pari
p0
(S'[y^5 - 28*y + 1, [3, 1], -4405851083, 1, [[1, -2.30916988653487, 5.33226556487944, -12.3131070694264, 6.43305605439910; 1, 0.0357142877894474, 0.00127551035230747, 4.55539438007284 E-5, -21.9999983730733; 1, 2.29131005236316, 5.25010175606045, 12.0296109295908, 5.56356844898898; 1, -0.00892722680886858 + 2.30041324788061*I, -5.29182141564610 - 0.0410726216359124*I, 0.141725292945941 - 12.1730094253616*I, 6.00168693484263 + 0.434697957539301*I], [1, -2.30916988653487, 5.33226556487944, -12.3131070694264, 6.43305605439910; 1, 0.0357142877894474, 0.00127551035230747, 4.55539438007284 E-5, -21.9999983730733; 1, 2.29131005236316, 5.25010175606045, 12.0296109295908, 5.56356844898898; 1, 2.29148602107174, -5.33289403728201, -12.0312841324157, 6.43638489238193; 1, -2.30934047468947, -5.25074879401019, 12.3147347183075, 5.56698897730333], [1, -2, 5, -12, 6; 1, 0, 0, 0, -22; 1, 2, 5, 12, 6; 1, 2, -5, -12, 6; 1, -2, -5, 12, 6], [5, 0, 0, 0, 2; 0, 0, 0, 112, -5; 0, 0, 112, -5, 0; 0, 112, -5, 0, 0; 2, -5, 0, 0, 628], [4405851083, 1219476639, 1903324858, 2995978611, 881170233; 0, 1, 0, 0, 0; 0, 0, 1, 0, 0; 0, 0, 0, 1, 0; 0, 0, 0, 0, 1], [882294159, -250, -5600, -125440, -2809856; -250, 78400, 1756160, 39337984, 625; -5600, 1756160, 39337984, 625, 14000; -125440, 39337984, 625, 14000, 313600; -2809856, 625, 14000, 313600, 7024640], [4405851083, [-881170217, -26828486059, -40653670237, 32920519242, -1409872340; 1409872472, -881170211, -34145345893, -52073619385, 10362559690; -1903324858, 1409872472, -881170211, -34145345893, -10200472509; -1219476639, -1903324858, 1409872472, -881170211, -7316859835; 1, -1219476639, -1903324858, 1409872472, -881170233]], []], [-2.30916988653487, 0.0357142877894474, 2.29131005236316, -0.00892722680886858 + 2.30041324788061*I], [1, y, y^2, y^3, y^4 - 22], [1, 0, 0, 0, 22; 0, 1, 0, 0, 0; 0, 0, 1, 0, 0; 0, 0, 0, 1, 0; 0, 0, 0, 0, 1], [1, 0, 0, 0, 0, 0, 0, 0, 22, -1, 0, 0, 22, -1, 0, 0, 22, -1, 0, 0, 0, -1, 0, 0, 132; 0, 1, 0, 0, 0, 1, 0, 0, 0, 6, 0, 0, 0, 28, -1, 0, 0, 28, -1, 0, 0, 6, -1, 0, 0; 0, 0, 1, 0, 0, 0, 1, 0, 0, 0, 1, 0, 0, 0, 6, 0, 0, 0, 28, -1, 0, 0, 6, -1, 0; 0, 0, 0, 1, 0, 0, 0, 1, 0, 0, 0, 1, 0, 0, 0, 1, 0, 0, 0, 6, 0, 0, 0, 6, -1; 0, 0, 0, 0, 1, 0, 0, 0, 1, 0, 0, 0, 1, 0, 0, 0, 1, 0, 0, 0, 1, 0, 0, 0, -16]]'
p1
tp2
Rp3
.