csage.libs.cypari2.gen
objtogen
p0
(S'[y^2 + 1, [0, 1], -4, 1, [Mat([1, 0.E-38 + 1.00000000000000*I]), [1, 1.00000000000000; 1, -1.00000000000000], [1, 1; 1, -1], [2, 0; 0, -2], [2, 0; 0, 2], [1, 0; 0, -1], [1, [0, -1; 1, 0]], []], [0.E-38 + 1.00000000000000*I], [1, y], [1, 0; 0, 1], [1, 0, 0, -1; 0, 1, 1, 0]]'
p1
tp2
Rp3
.