csage.libs.pari.gen_py
pari
p0
(S'[y^23 + 3*y^2 - 2*y + 1, [1, 11], -1467058937388504088435748971968569685675, 1, [[1, -1.08630637375875, 0.920550614593084, 1.18006153766888, -1.28190836979725, 1.39254523268544, 0.847413434027705, -1.51273076201355, 1.64328906855625, -1.78511538910073, 1.93918222507495, 1.62750039153635, -2.10654601097859, 2.28835435834210, -2.48585392488564, 2.70039896283647, -2.93346060502077, -1.42505930511389, 3.18663695240425, -3.46166403225189, -1.31183921915419, 3.76042770204663, -0.427527441931057; 1, 1.02150297409134 + 0.154278156217303*I, -0.957117600764956 + 0.144553997858398*I, 1.01966657659163 + 0.315191190826606*I, 0.992965324793218 + 0.479281018229734*I, 0.940374440643406 + 0.642779845044010*I, 0.895178243397221 - 0.276710351222426*I, 0.861428398529682 + 0.801680758254767*I, 0.756269841806371 + 0.951818863867425*I, 0.625687033250477 + 1.08896171703345*I, 0.471138159420597 + 1.20890747448023*I, 0.0783869783378878 + 0.117535590125337*I, 0.294761014855931 + 1.30758890714183*I, 0.0993668476374740 + 1.38118114343093*I, -0.111582549822870 + 1.42621077981620*I, -0.334015075988042 + 1.43966380321067*I, -0.563306070645262 + 1.41908962659913*I, -1.76028004808094 + 0.522428580007299*I, -0.794353357586654 + 1.36269845210801*I, -1.02166892192560 + 1.26944915022450*I, 1.60927587645811 - 0.754481107368102*I, -1.23948611659195 + 1.13912488487284*I, -2.24799427052515 + 1.34900035025351*I; 1, -1.03965891791431 + 0.310976854179689*I, 0.882864579342808 + 0.264077424643732*I, 0.984184061763264 - 0.646619719425704*I, -0.822131970483749 + 0.978322421261112*I, 0.550501205878660 - 1.27278564376122*I, 0.709712979251688 + 0.466289208844041*I, -0.176526612472397 + 1.49445607835594*I, -0.281213783050712 - 1.60862027991966*I, 0.792610091608160 + 1.58496544195121*I, -1.31693171729081 - 1.40134006343120*I, 1.21315697672216 + 1.06537861085924*I, 1.80494412872740 + 1.04738041136430*I, -2.20223732522402 - 0.527622538001911*I, 2.45365407159505 - 0.136297358628988*I, -2.50857801319112 + 0.904732388816607*I, 2.32671467054925 - 1.72072279536561*I, -0.616559284013259 - 1.46316419341874*I, -1.88388469486051 + 2.51251920828144*I, 1.17726220387661 - 3.19800753736579*I, -0.157949720891325 - 1.45459522799450*I, -0.229444825370828 + 3.69093835248573*I, 0.748121545286292 - 0.726832157578399*I; 1, 0.926256946377944 + 0.449222795607418*I, -0.874030931708883 + 0.423893845141986*I, 0.656150810620049 + 0.832191469805380*I, 0.233924867661721 + 1.06558103111052*I, -0.262008756139490 + 1.09208621500778*I, 0.584244077634641 - 0.740992664830222*I, -0.733277452936166 + 0.893852136787949*I, -1.08074209015200 + 0.498531803370735*I, -1.22499671865571 - 0.0237254372062169*I, -1.12400371271626 - 0.572272301582544*I, 0.387698912031128 + 0.154315312970766*I, -0.784038483492429 - 1.03499928466004*I, -0.261275819455831 - 1.31088323633083*I, 0.346870089447882 - 1.33158575758240*I, 0.919469506454027 - 1.07756860636426*I, 1.33573339914548 - 0.585058744678648*I, -1.05400085665897 + 1.13541968416675*I, 1.50005406434664 + 0.0581271654525757*I, 1.36332344927820 + 0.727699171121773*I, 0.439931934996257 - 1.43917640034499*I, 0.935888759041346 + 1.28647238332691*I, 0.0289987335430566 + 2.33967710741428*I; 1, 0.333333311566230 + 0.471403368752224*I, -1.00000323669741 + 1.41421477597694*I, -0.111110039471236 + 0.314268891979311*I, -0.185184091778278 + 0.0523786435767806*I, -0.0864194955946045 - 0.0698368579848057*I, -0.999996959186208 - 2.82843870672450*I, 0.00411483346667531 - 0.0640173924906204*I, 0.0315496255448022 - 0.0193993830786885*I, 0.0196614756965321 + 0.00840613916072987*I, 0.00259114248563594 + 0.0120705320819179*I, 4.00002304868247 - 1.41420132081290*I, -0.00482637538057090 + 0.00524498372787791*I, -0.00408129468683967 - 0.000526841818139387*I, -0.00111207646557147 - 0.00209954999215875*I, 0.000619042808183532 - 0.00122408654386559*I, 0.000783386109675581 - 0.000116209956130824*I, 2.00004531393581 - 2.82844411514830*I, 0.000315910450975766 + 0.000330554201620714*I, -5.05208874170732 E-5 + 0.000259105977492375*I, 1.99997567319045 + 5.65694690555751*I, -0.000138983725359741 + 6.25529370033782 E-5*I, -5.00010003939432 - 1.41433268085097*I; 1, -0.903880820351440 + 0.594238655740977*I, 0.772468404678291 + 0.507844149431036*I, 0.463880957422349 - 1.07424184727138*I, 0.219062930922925 + 1.24664259873000*I, -0.938810003769955 - 0.996640673230803*I, 0.338801756114891 + 0.784587119872392*I, 1.44081477027918 + 0.342967194679031*I, -1.50612920126374 + 0.546186362982330*I, 1.03679624787085 - 1.38868756976843*I, -0.111928408359406 + 1.87131246838620*I, 0.202067429617023 + 1.56271437035126*I, -1.01083626411661 - 1.75795563598152*I, 1.95832070562864 + 0.988304399629524*I, -2.35737720381357 + 0.270400472128413*I, 1.97010562779148 - 1.64525446123944*I, -0.803066891628379 + 2.65782687203852*I, 1.07119129378439 - 1.58650920899601*I, -0.853506706830272 - 2.87957212360161*I, 2.48262141018341 + 2.09560333520943*I, 1.63316084962198 - 0.681530006210698*I, -3.48928238573979 - 0.418906052259156*I, 1.47094185590847 + 1.08105803640125*I; 1, 0.743533877847966 + 0.705596792688457*I, -0.707649359972122 + 0.671543198797548*I, 0.0549757936553965 + 1.04927023892947*I, -0.699485350207721 + 0.818958713340443*I, -1.09794569641507 + 0.115368928288270*I, 0.0497973488177101 - 0.950434229645432*I, -0.897763767098093 - 0.688926255303228*I, -0.181413619001016 - 1.14569924481321*I, 0.673514540895529 - 0.979871070060574*I, 1.19217476266199 - 0.253337636628251*I, 0.652815929621326 - 0.244418984424563*I, 1.06517654822672 + 0.652829573491383*I, 0.331360396268030 + 1.23698606042762*I, -0.626435716435649 + 1.15354787518432*I, -1.27971585840651 + 0.415690892576591*I, -1.24482225529638 - 0.593883143900635*I, -0.459619840661014 + 1.01062039294600*I, -0.506525477143940 - 1.31991482777732*I, 0.554708816851987 - 1.33880414241405*I, -0.353425565374738 - 1.02381945227133*I, 1.35710070659579 - 0.604045473641271*I, 1.54065894590828 + 1.19317989063910*I; 1, -0.691088381243011 + 0.824483574709425*I, 0.597116401895670 + 0.712372945218792*I, -0.202170014276546 - 1.13958203801477*I, 1.07928402027933 + 0.620866049875460*I, -1.25777450669333 + 0.460778633789484*I, -0.150927215666865 + 0.850739139713732*I, 0.489328932662941 - 1.35545318159384*I, 0.779379344542350 + 1.34018161272906*I, -1.64357773641671 - 0.283598473269612*I, 1.36967976033074 - 1.15911123761879*I, -0.847091878204767 + 1.25121296863314*I, 0.00909840828951621 + 1.93032677389119*I, -1.59781052315181 - 1.32652491724780*I, 2.19792629369162 - 0.400622574097238*I, -1.18865459239781 + 2.08901973379298*I, -0.900897079638887 - 2.42372345364662*I, 2.14518633951234 - 0.282040644182709*I, 2.62091968160383 + 0.932232273495410*I, -2.57989733743853 + 1.51665033528258*I, 1.48184407281320 + 1.35976161607881*I, 0.532483784685520 - 3.17522240427675*I, -0.779988648850790 + 2.26803541905317*I; 1, 0.491589866637919 + 0.903460209804458*I, -0.464684210478799 + 0.854012099889796*I, -0.574579753718828 + 0.888263768100880*I, -1.08496855479361 - 0.0824484775441983*I, -0.458870628337186 - 1.02075675422552*I, -0.513405251289874 - 0.793691876753261*I, 0.696636960343574 - 0.916365030830098*I, 1.17035901344157 + 0.178908011052124*I, 0.413700362135379 + 1.14532216512403*I, -0.831382097746462 + 0.936790586381785*I, 0.402988528892956 - 0.863330090389250*I, -1.25505203427167 - 0.290603885030609*I, -0.354421815211513 - 1.27674749928525*I, 0.979260390698171 - 0.947842140434203*I, 1.33773214392530 + 0.418773206623515*I, 0.279270637112931 + 1.41445242820851*I, -0.501310896199659 + 0.902371035416566*I, -1.14061487229345 + 0.947640388946976*I, -1.41687009757318 - 0.564649739405177*I, -0.537684524830873 - 0.847443143312589*I, -0.186380410280221 - 1.55766184571045*I, 1.88997398744813 - 0.135033855789168*I; 1, -0.420241175877272 + 0.981001356286326*I, 0.368967170773409 + 0.861308495528172*I, -0.785761015132900 - 0.824514327005929*I, 1.13905880602829 - 0.424337751253666*I, -0.0624035025353548 + 1.29574242915960*I, -0.605715551360469 + 0.635589117516263*I, -1.24490055911898 - 0.605742242688302*I, 1.11739243645158 - 0.966691304591463*I, 0.478751169503641 + 1.50240698621493*I, -1.67505424559573 - 0.161717731926455*I, -1.37664301122141 + 0.348392685720303*I, 0.862572080182768 - 1.57527003695760*I, 1.18285373751771 + 1.50817771320931*I, -1.97660822772441 + 0.526582745162247*I, 0.314073778666455 - 2.16034710426802*I, 1.98731670527716 + 1.21597361024642*I, 1.78269237914000 + 1.28288823531802*I, -2.02802406992633 + 1.43855820344168*I, -0.558968328819855 - 2.59403575416128*I, -0.447207572401954 + 2.00879173367040*I, 2.77965410086885 + 0.541771946903042*I, -2.66612175855561 + 0.0687980894750849*I; 1, 0.197142943167576 + 1.02283291219058*I, -0.181689772635649 + 0.942657526940734*I, -1.00732182621949 + 0.403288581355827*I, -0.611083223659235 - 0.950816419150846*I, 0.852055581726167 - 0.812482780529636*I, -0.855592039617627 - 0.342542463486290*I, 0.999010873637685 + 0.711335245378625*I, -0.530629156689075 + 1.16205592504566*I, -1.29319883962298 - 0.313653840440696*I, 0.0658704456935473 - 1.38456097641335*I, -0.377239484968457 - 1.08683627731354*I, 1.42916042914208 - 0.205581966089077*I, 0.492024894328461 + 1.42126328986995*I, -1.35671563398762 + 0.783451283517236*I, -1.06880667100517 - 1.23324151106504*I, 1.05069231339787 - 1.33633550100072*I, -0.419152686632987 + 1.44334059427451*I, 1.57398450717903 + 0.811233565002400*I, -0.519456451512710 + 1.76985212982168*I, -1.28442011879801 - 0.657357659401555*I, -1.91267018179081 - 0.182403297212480*I, 1.33138169952925 - 1.83562694288934*I; 1, -0.115337437423562 + 1.04940413785137*I, 0.103483248271102 + 0.941548133544801*I, -1.08794632006814 - 0.242071168162918*I, 0.379511426135733 - 1.11377550182963*I, 1.12502874489404 + 0.526720873194883*I, -0.875804105108959 + 0.194868918525619*I, -0.682500996287319 + 1.11985918434173*I, -1.09646694590826 - 0.845381058188809*I, 1.01361006828520 - 1.05313286515547*I, 0.988254798578675 + 1.18515224575986*I, -1.14991362527849 - 0.609577133314488*I, -1.35768644667384 + 0.900386251897209*I, -0.788276982821351 - 1.52861001802948*I, 1.69504752525978 - 0.650915165246212*I, 0.487570629924967 + 1.85386477400196*I, -2.00168851187308 + 0.297838624174861*I, 0.524337938431233 + 1.89245926446505*I, -0.0816834611414329 - 2.13493215072724*I, 2.24982779409303 + 0.160518641222213*I, -1.72758129520600 + 0.689527239184240*I, -0.427938298715864 + 2.34246478783695*I, -1.10210832933207 - 2.35969247740603*I], [1, -1.08630637375875, 0.920550614593084, 1.18006153766888, -1.28190836979725, 1.39254523268544, 0.847413434027705, -1.51273076201355, 1.64328906855625, -1.78511538910073, 1.93918222507495, 1.62750039153635, -2.10654601097859, 2.28835435834210, -2.48585392488564, 2.70039896283647, -2.93346060502077, -1.42505930511389, 3.18663695240425, -3.46166403225189, -1.31183921915419, 3.76042770204663, -0.427527441931057; 1, 1.17578113030864, -0.812563602906558, 1.33485776741824, 1.47224634302295, 1.58315428568742, 0.618467892174795, 1.66310915678445, 1.70808870567380, 1.71464875028393, 1.68004563390083, 0.195922568463225, 1.60234992199776, 1.48054799106840, 1.31462822999333, 1.10564872722263, 0.855783555953867, -1.23785146807364, 0.568345094521354, 0.247780228298895, 0.854794769090007, -0.100361231719108, -0.898993920271644; 1, 0.867224817874032, -1.10167159862335, 0.704475385765027, 0.513684306563484, 0.297594595599396, 1.17188859461965, 0.0597476402749148, -0.195549022061054, -0.463274683782972, -0.737769315059636, -0.0391486117874496, -1.01282789228590, -1.28181429579346, -1.53779332963907, -1.77367887919872, -1.98239569724439, -2.28270862808824, -2.15705180969466, -2.29111807215010, 2.36375698382621, -2.37861100146479, -3.59699462077866; 1, -0.728682063734624, 1.14694200398654, 0.337564342337560, 0.156190450777363, -0.722284437882563, 1.17600218809573, 1.31792946588354, -1.88983406297037, 2.37757553355937, -2.71827178072201, 2.27853558758140, 2.85232454009170, -2.72985986322593, 2.31735671296607, -1.60384562437451, 0.605991875183638, -2.07972347743200, 0.628634513420928, -2.02074533348918, -1.61254494888583, 3.46149352711490, 0.0212893877078930; 1, -1.35063577209400, 0.618787154699076, 1.63080378118897, -1.80045439174486, 1.82328684963988, 0.243423770407647, -1.67098269082833, 1.32740649686895, -0.792355350343054, 0.0844083461403865, 0.147778365862921, 0.757563717363100, -1.67461478722211, 2.58995143022404, -3.41331040200772, 4.04743746591486, 0.846604909405483, -4.39640390314195, 4.37526974124240, 1.29664550710318, -3.92038317785656, 1.47495370286469; 1, 1.37547974198536, -0.450137086566898, 1.48834228042543, 1.29950589877224, 0.830077458868290, -0.156748587195580, 0.160574683851783, -0.582210286781261, -1.24872215586193, -1.69627601429880, 0.542014225001894, -1.81903776815247, -1.57215905578666, -0.984715668134519, -0.158099099910236, 0.750674654466837, 0.0814188275077841, 1.55818122979921, 2.09102262039997, -0.999244465348736, 2.22236114236826, 2.36867584095733; 1, 0.477034150770526, -1.29792477685087, -0.176040659185330, -0.831656163448794, -1.35409497114727, 1.32523674246486, -1.62712958972411, -1.57927389352273, -1.20127128144950, -0.551731411133712, 0.233383599060361, 0.250960801167609, 1.04960741687500, 1.67845584703028, 1.99703811281829, 1.92079214382413, -2.18942054082573, 1.44192689889406, 0.635624278156425, 1.87910833534125, -0.350583624285568, -2.31067837387122; 1, 0.804736680318454, 0.414211539279528, 0.203158852508076, -0.132805448201497, -0.156256353579410, -3.82843566591071, -0.0599025590239451, 0.0121502424661137, 0.0280676148572620, 0.0146616745675538, 2.58582172786957, 0.000418608347307004, -0.00460813650497905, -0.00321162645773022, -0.000605043735682056, 0.000667176153544756, -0.828398801212491, 0.000646464652596480, 0.000208585090075301, 7.65692257874796, -7.64307883563628 E-5, -6.41443272024529; 1, -0.138070057185994, -2.41421801267436, -0.425378931450547, -0.237562735355058, -0.0165826376097988, 1.82844174753829, 0.0681322259572957, 0.0509490086234907, 0.0112553365358022, -0.00947938959628193, 5.41422436949537, -0.0100713591084488, -0.00355445286870028, 0.000987473526587275, 0.00184312935204912, 0.000899596065806405, 4.82848942908410, -1.46437506449480 E-5, -0.000309626864909448, -3.65697123236706, -0.000201536662363119, -3.58576735854336; 1, -0.309642164610463, 1.28031255410933, -0.610360889849032, 1.46570552965292, -1.93545067700076, 1.12338887598728, 1.78378196495821, -0.959942838281408, -0.351891321897578, 1.75938406002680, 1.76478179996828, -2.76879190009813, 2.94662510525817, -2.08697673168516, 0.324851166552035, 1.85475998041014, -0.515317915211618, -3.73307883043188, 4.57822474539284, 0.951630843411285, -3.90818843799894, 2.55199989230972; 1, -1.49811947609242, 0.264624255247255, 1.53812280469373, -1.02757966780707, 0.0578306694608481, -0.445785363757501, 1.09784757560015, -2.05231556424607, 2.42548381763928, -1.98324087674561, -1.36064694073424, 0.747119371864903, 0.970016305999117, -2.62777767594198, 3.61536008903092, -3.46089376366689, 2.65770050278040, 2.02606541677134, 0.387018074973981, 2.31469085583268, -3.07037633348063, 0.389883819507218; 1, 1.44913067053642, -0.0361061611745735, 1.10424603258487, 0.119473363132722, -0.982576768126801, -0.900636880827722, -1.58669002240132, -1.32711286381422, -0.306356529165046, 0.938837126033742, 0.408396945196762, 1.71800612171810, 1.56834645669565, 0.527112158748673, -0.864024965829919, -1.83870539919701, 0.551000552284988, -1.82644030492126, -0.784095325562067, -1.37724501764607, 0.753055232954520, 2.73383883654738; 1, 0.0379370851595088, -1.37919255876967, -0.994294445274076, -1.51844406354816, -1.21331462470334, 1.00023157846314, -0.208837511794865, 0.964285625812192, 1.65338561095610, 1.44551239929024, 0.897234914045889, 0.412346974735336, -0.905625664159586, -1.77998359161997, -1.69540675098310, -0.650939111395742, -1.47024023360702, 0.813389350633376, 1.89351295926604, 0.670393886896591, 1.96114618023706, 0.347479055269177; 1, 0.133395193466413, 1.30948934711446, -1.34175205229132, 1.70015007015479, -0.796995872903845, 0.699811924046867, -0.866124248930899, 2.11956095727141, -1.92717620968632, 0.210568522711954, 0.404121090428369, 1.93942518218071, -2.92433544039961, 1.79730371959439, 0.900365141395162, -3.32462053328550, 1.86314569532964, 3.55315195509924, -1.06324700215595, 2.84160568889201, -2.64273861959123, 1.48804677020238; 1, -1.51557195595244, -0.115256543323122, 0.937412023738229, 0.458417970403867, -1.71855314048281, -1.00166635538060, 1.84478211425678, -0.560802268186715, -1.35997926314710, 2.52879099794953, -2.09830484683790, -1.92122836560168, -0.271285605904009, 2.59854886778886, -3.27767432619079, 1.52282637400773, 2.42722698369505, 1.68868740810842, -4.09654767272110, 0.122082456734383, 3.70770618896227, -3.04802406790396; 1, 1.39505007644238, 0.389327889410997, 0.313684014382053, -1.16741703233781, -1.47962738256271, -1.30709712804314, -0.219728070486525, 1.34926702449370, 1.55902252725941, 0.105408488635323, -0.460341561496294, -1.54565591930227, -1.63116931449676, 0.0314182502639680, 1.75650535054882, 1.69372306532144, 0.401060139216907, -0.192974483346476, -1.98151983697836, -1.38512766814346, -1.74404225599067, 1.75494013165896; 1, -0.411870343166539, -1.31869631036859, -1.46284352181971, -1.00252007724941, 0.561886125888338, 0.280286625463387, 1.61300199117367, 0.991451002389448, -0.731621802988651, -1.76817268412825, 1.26631861928221, -0.964448149241057, 0.922325684073736, 1.92710253113237, 0.918958937301788, -1.13518179109558, -1.40368193161622, -2.08825526124043, -0.852220358168001, 0.309758618481716, 1.37128143543023, 2.02500784323729; 1, 0.560760180409054, 1.23027566630158, -1.61027534213883, 0.714721054774626, 1.23333892662424, 0.0298735661557935, -1.85064280180729, 0.150701131860118, 1.98115815571857, -1.83677197752219, -1.02825032550111, -0.712697956774834, 2.69103145072702, -1.45002548256216, -1.84627332560157, 3.20329031552358, 3.06558061445803, -0.589465866484655, -3.15300408298113, 1.56158416126844, 3.32142604777189, -2.59732366908053; 1, -1.40124253216360, -0.492341324754763, 0.0387533118730292, 1.56339655728196, -1.35814593169495, -1.24130466887673, -0.639158316430683, 2.08408374104304, -1.02365581671129, -1.51333651366928, -1.72503569694171, 2.43784211714037, -0.325323975691601, -2.50319097288666, 2.47442088293448, 0.771343095030741, 0.499804143821978, -3.46658227336801, 2.03506742534142, -2.45599930607235, 2.23788215396580, -2.73491984803070; 1, 1.21997585535816, 0.760967754305085, -0.604033244863660, -1.56189964281008, 0.0395728011965305, -1.19813450310392, 1.71034611901631, 0.631426768356585, -1.60685268006368, -1.31869053071980, -1.46407576228200, 1.22357846305300, 1.91328818419841, -0.573264350470383, -2.30204818207021, -0.285643187602853, 1.02418790764153, 2.38521807218143, 1.25039567830897, -1.94177777819957, -2.09507347900329, -0.504245243360086; 1, -0.825689969023003, -1.12434729957638, -1.41061040757531, 0.339733195491611, 1.66453836225580, -0.513049576131337, 0.287675628259060, -1.69268508173473, -0.979544999182287, 1.45043142210689, 0.709596792345085, 1.63474239523116, -0.929238395541492, -2.14016691750486, 0.164434840059877, 2.38702781439859, -1.86249328090750, 0.762750942176631, -2.28930858133439, -0.627062459396458, -1.73026688457833, 3.16700864241859; 1, 0.934066700427804, 1.04503138181590, -1.33001748823105, -0.734264075693896, 1.65174961808892, -0.680935186583340, 0.437358188054415, -1.94184800409707, -0.0395227968702658, 2.17340704433854, -1.75949075859298, -0.457300194776632, -2.31688700085083, 1.04413236001356, 2.34143540392693, -1.70384988769822, 2.41679720289628, -2.21661561186868, 2.41034643531524, -1.03805405602176, 1.91452648912109, -3.46180080673810; 1, -1.16474157527493, -0.838064885273698, -0.845875151905218, 1.49328692796536, 0.598307871699156, -1.07067302363458, -1.80236018062905, -0.251085887719456, 2.06674293344067, -0.196897447181186, -0.540336491964003, -2.25807269857105, 0.740333035208125, 2.34596269050599, -1.36629414407699, -2.29952713604794, -1.36812132603382, 2.05324868958581, 2.08930915287081, -2.41710853439024, -2.77040308655282, 1.25758414807397], [1, -1, 1, 1, -1, 1, 1, -2, 2, -2, 2, 2, -2, 2, -2, 3, -3, -1, 3, -3, -1, 4, 0; 1, 1, -1, 1, 1, 2, 1, 2, 2, 2, 2, 0, 2, 1, 1, 1, 1, -1, 1, 0, 1, 0, -1; 1, 1, -1, 1, 1, 0, 1, 0, 0, 0, -1, 0, -1, -1, -2, -2, -2, -2, -2, -2, 2, -2, -4; 1, -1, 1, 0, 0, -1, 1, 1, -2, 2, -3, 2, 3, -3, 2, -2, 1, -2, 1, -2, -2, 3, 0; 1, -1, 1, 2, -2, 2, 0, -2, 1, -1, 0, 0, 1, -2, 3, -3, 4, 1, -4, 4, 1, -4, 1; 1, 1, 0, 1, 1, 1, 0, 0, -1, -1, -2, 1, -2, -2, -1, 0, 1, 0, 2, 2, -1, 2, 2; 1, 0, -1, 0, -1, -1, 1, -2, -2, -1, -1, 0, 0, 1, 2, 2, 2, -2, 1, 1, 2, 0, -2; 1, 1, 0, 0, 0, 0, -4, 0, 0, 0, 0, 3, 0, 0, 0, 0, 0, -1, 0, 0, 8, 0, -6; 1, 0, -2, 0, 0, 0, 2, 0, 0, 0, 0, 5, 0, 0, 0, 0, 0, 5, 0, 0, -4, 0, -4; 1, 0, 1, -1, 1, -2, 1, 2, -1, 0, 2, 2, -3, 3, -2, 0, 2, -1, -4, 5, 1, -4, 3; 1, -1, 0, 2, -1, 0, 0, 1, -2, 2, -2, -1, 1, 1, -3, 4, -3, 3, 2, 0, 2, -3, 0; 1, 1, 0, 1, 0, -1, -1, -2, -1, 0, 1, 0, 2, 2, 1, -1, -2, 1, -2, -1, -1, 1, 3; 1, 0, -1, -1, -2, -1, 1, 0, 1, 2, 1, 1, 0, -1, -2, -2, -1, -1, 1, 2, 1, 2, 0; 1, 0, 1, -1, 2, -1, 1, -1, 2, -2, 0, 0, 2, -3, 2, 1, -3, 2, 4, -1, 3, -3, 1; 1, -2, 0, 1, 0, -2, -1, 2, -1, -1, 3, -2, -2, 0, 3, -3, 2, 2, 2, -4, 0, 4, -3; 1, 1, 0, 0, -1, -1, -1, 0, 1, 2, 0, 0, -2, -2, 0, 2, 2, 0, 0, -2, -1, -2, 2; 1, 0, -1, -1, -1, 1, 0, 2, 1, -1, -2, 1, -1, 1, 2, 1, -1, -1, -2, -1, 0, 1, 2; 1, 1, 1, -2, 1, 1, 0, -2, 0, 2, -2, -1, -1, 3, -1, -2, 3, 3, -1, -3, 2, 3, -3; 1, -1, 0, 0, 2, -1, -1, -1, 2, -1, -2, -2, 2, 0, -3, 2, 1, 0, -3, 2, -2, 2, -3; 1, 1, 1, -1, -2, 0, -1, 2, 1, -2, -1, -1, 1, 2, -1, -2, 0, 1, 2, 1, -2, -2, -1; 1, -1, -1, -1, 0, 2, -1, 0, -2, -1, 1, 1, 2, -1, -2, 0, 2, -2, 1, -2, -1, -2, 3; 1, 1, 1, -1, -1, 2, -1, 0, -2, 0, 2, -2, 0, -2, 1, 2, -2, 2, -2, 2, -1, 2, -3; 1, -1, -1, -1, 1, 1, -1, -2, 0, 2, 0, -1, -2, 1, 2, -1, -2, -1, 2, 2, -2, -3, 1], [23, 0, -2, 0, 0, 0, -2, 0, 0, 0, 0, 8, 0, 0, 0, 0, 0, 4, 0, 0, 4, 0, -10; 0, 0, -23, 0, 0, 0, 2, 0, 0, 0, 0, 4, 0, 0, 0, 0, 0, -17, 0, 0, -4, 0, -2; -2, -23, -2, 0, 0, 0, 10, 0, 0, 0, 0, -4, 0, 0, 0, 0, 0, 4, 0, 0, -20, 0, 14; 0, 0, 0, 0, 0, 0, 23, 0, 0, 0, 0, 21, 0, 0, 0, 0, 0, -19, 0, 0, 17, 0, 2; 0, 0, 0, 0, 0, 0, 0, 0, 0, 0, 0, -23, 0, 0, 0, 0, 0, 21, 0, 0, 19, 0, -40; 0, 0, 0, 0, 0, 0, 0, 0, 0, 0, 0, 0, 0, 0, 0, 0, 0, -23, 0, 0, -21, 0, -19; -2, 2, 10, 23, 0, 0, -14, 0, 0, 0, 0, -16, 0, 0, 0, 0, 0, -20, 0, 0, 28, 0, 2; 0, 0, 0, 0, 0, 0, 0, 0, 0, 0, 0, 0, 0, 0, 0, 0, 0, 0, 0, 0, 23, -63, 21; 0, 0, 0, 0, 0, 0, 0, 0, 0, 0, 0, 0, 0, 0, 0, 0, 0, 0, 0, -63, 0, 44, -23; 0, 0, 0, 0, 0, 0, 0, 0, 0, 0, 0, 0, 0, 0, 0, 0, 0, 0, -63, 44, 0, -23, 0; 0, 0, 0, 0, 0, 0, 0, 0, 0, 0, 0, 0, 0, 0, 0, 0, -63, 0, 44, -23, 0, 0, 0; 8, 4, -4, 21, -23, 0, -16, 0, 0, 0, 0, 28, 0, 0, 0, 0, 0, 8, 0, 0, 32, 0, -44; 0, 0, 0, 0, 0, 0, 0, 0, 0, 0, 0, 0, 0, 0, 0, -63, 44, 0, -23, 0, 0, 0, 0; 0, 0, 0, 0, 0, 0, 0, 0, 0, 0, 0, 0, 0, 0, -63, 44, -23, 0, 0, 0, 0, 0, 0; 0, 0, 0, 0, 0, 0, 0, 0, 0, 0, 0, 0, 0, -63, 44, -23, 0, 0, 0, 0, 0, 0, 0; 0, 0, 0, 0, 0, 0, 0, 0, 0, 0, 0, 0, -63, 44, -23, 0, 0, 0, 0, 0, 0, 0, 0; 0, 0, 0, 0, 0, 0, 0, 0, 0, 0, -63, 0, 44, -23, 0, 0, 0, 0, 0, 0, 0, 0, 0; 4, -17, 4, -19, 21, -23, -20, 0, 0, 0, 0, 8, 0, 0, 0, 0, 0, -8, 0, 0, 40, 0, -28; 0, 0, 0, 0, 0, 0, 0, 0, 0, -63, 44, 0, -23, 0, 0, 0, 0, 0, 0, 0, 0, 0, 0; 0, 0, 0, 0, 0, 0, 0, 0, -63, 44, -23, 0, 0, 0, 0, 0, 0, 0, 0, 0, 0, 0, 0; 4, -4, -20, 17, 19, -21, 28, 23, 0, 0, 0, 32, 0, 0, 0, 0, 0, 40, 0, 0, -56, 0, -4; 0, 0, 0, 0, 0, 0, 0, -63, 44, -23, 0, 0, 0, 0, 0, 0, 0, 0, 0, 0, 0, 0, 0; -10, -2, 14, 2, -40, -19, 2, 21, -23, 0, 0, -44, 0, 0, 0, 0, 0, -28, 0, 0, -4, 0, 46], [293411787477700817687149794393713937135, 9835380955104459372432768338797844965, 26013417264606046010111548386802049178, 65853272852121622993581927787895363676, 134950382705317148030011892399434195908, 109367620252276987332069265991095528633, 290114695395650996825349668670637072517, 200035627114250923275384355374184165016, 99961862688177894259326738774252783475, 52543781660393562356122767501855198254, 188994303898713162430949251546716471557, 22481807983171755146077759527344303358, 257190600081953215255120429233618845077, 111407846328747000510724284799979993054, 94961376406668370257225339589229751550, 280241501556424248549843926980839005091, 141828180612277877389277031451504860663, 253844178565775733506461668934982108075, 264111611269969872581021330469593757463, 240397233911561696736823966760601651671, 45181886525208188678522606344335007117, 48370433613356205102845729981051838460, 269014110211523507438569099353504781985; 0, 5, 4, 2, 2, 4, 3, 0, 1, 3, 3, 0, 1, 0, 4, 2, 2, 3, 4, 0, 0, 1, 4; 0, 0, 1, 0, 0, 0, 0, 0, 0, 0, 0, 0, 0, 0, 0, 0, 0, 0, 0, 0, 0, 0, 0; 0, 0, 0, 1, 0, 0, 0, 0, 0, 0, 0, 0, 0, 0, 0, 0, 0, 0, 0, 0, 0, 0, 0; 0, 0, 0, 0, 1, 0, 0, 0, 0, 0, 0, 0, 0, 0, 0, 0, 0, 0, 0, 0, 0, 0, 0; 0, 0, 0, 0, 0, 1, 0, 0, 0, 0, 0, 0, 0, 0, 0, 0, 0, 0, 0, 0, 0, 0, 0; 0, 0, 0, 0, 0, 0, 1, 0, 0, 0, 0, 0, 0, 0, 0, 0, 0, 0, 0, 0, 0, 0, 0; 0, 0, 0, 0, 0, 0, 0, 1, 0, 0, 0, 0, 0, 0, 0, 0, 0, 0, 0, 0, 0, 0, 0; 0, 0, 0, 0, 0, 0, 0, 0, 1, 0, 0, 0, 0, 0, 0, 0, 0, 0, 0, 0, 0, 0, 0; 0, 0, 0, 0, 0, 0, 0, 0, 0, 1, 0, 0, 0, 0, 0, 0, 0, 0, 0, 0, 0, 0, 0; 0, 0, 0, 0, 0, 0, 0, 0, 0, 0, 1, 0, 0, 0, 0, 0, 0, 0, 0, 0, 0, 0, 0; 0, 0, 0, 0, 0, 0, 0, 0, 0, 0, 0, 1, 0, 0, 0, 0, 0, 0, 0, 0, 0, 0, 0; 0, 0, 0, 0, 0, 0, 0, 0, 0, 0, 0, 0, 1, 0, 0, 0, 0, 0, 0, 0, 0, 0, 0; 0, 0, 0, 0, 0, 0, 0, 0, 0, 0, 0, 0, 0, 1, 0, 0, 0, 0, 0, 0, 0, 0, 0; 0, 0, 0, 0, 0, 0, 0, 0, 0, 0, 0, 0, 0, 0, 1, 0, 0, 0, 0, 0, 0, 0, 0; 0, 0, 0, 0, 0, 0, 0, 0, 0, 0, 0, 0, 0, 0, 0, 1, 0, 0, 0, 0, 0, 0, 0; 0, 0, 0, 0, 0, 0, 0, 0, 0, 0, 0, 0, 0, 0, 0, 0, 1, 0, 0, 0, 0, 0, 0; 0, 0, 0, 0, 0, 0, 0, 0, 0, 0, 0, 0, 0, 0, 0, 0, 0, 1, 0, 0, 0, 0, 0; 0, 0, 0, 0, 0, 0, 0, 0, 0, 0, 0, 0, 0, 0, 0, 0, 0, 0, 1, 0, 0, 0, 0; 0, 0, 0, 0, 0, 0, 0, 0, 0, 0, 0, 0, 0, 0, 0, 0, 0, 0, 0, 1, 0, 0, 0; 0, 0, 0, 0, 0, 0, 0, 0, 0, 0, 0, 0, 0, 0, 0, 0, 0, 0, 0, 0, 1, 0, 0; 0, 0, 0, 0, 0, 0, 0, 0, 0, 0, 0, 0, 0, 0, 0, 0, 0, 0, 0, 0, 0, 1, 0; 0, 0, 0, 0, 0, 0, 0, 0, 0, 0, 0, 0, 0, 0, 0, 0, 0, 0, 0, 0, 0, 0, 1], [13971868610406630497029684888239588289, -223411137982788237179702771718350, 157056686968824732531646675797993154, -95222286370040602463986952515574, 429787873592777062343732552503078, 1083029151278032552102409144287678, 1187440732630939331990024547735885100, 894636809560368581080471806128866, -1255078996080862313691783331324070, -4851547601298311409152530015842506, -5843396421914407662614303079289298, -1892709672684408513674423673356230046, 2110350274676507896590437196058642, 20043016811581479573681753505295914, 32562637930650656685078243951361990, 7393304774738942652238794044621086, -75049599110542517150496627433585982, -600608787899994742443736825938684146, -163824372246627136596212853560387462, -107832505864670236076177305580049194, -29068389444624025972051849994627928, 242448051890957357313461231686184590, 759180963159841243243107149814574834; -223411137982788237179702771718350, -95222286370040602463986952515574, -12079158937722221983355261214883358243, 429787873592777062343732552503078, 1083029151278032552102409144287678, 894636809560368581080471806128866, -833257237577669888243993951423710172, -1255078996080862313691783331324070, -4851547601298311409152530015842506, -5843396421914407662614303079289298, 2110350274676507896590437196058642, -1975690085235404601205183547545087862, 20043016811581479573681753505295914, 32562637930650656685078243951361990, 7393304774738942652238794044621086, -75049599110542517150496627433585982, -163824372246627136596212853560387462, -1892709672684408513674423673356230046, -107832505864670236076177305580049194, 242448051890957357313461231686184590, 1359789751059835985686843975753258980, 759180963159841243243107149814574834, 788249352604465269215158999809202762; 157056686968824732531646675797993154, -12079158937722221983355261214883358243, -108472598284782180802134632149037402, 1975913496373387389442363250316806212, -1404702413746670564113214940415250816, 4657492652231474231795628358499309125, 615467026565872850666025877080491116, 614838544534523956104114192020251, 730577525106962525816905769841448, -286496400042115569505014792358787, -2549227203634422790638509320165124, -185004996442682940015114504534535385, -4092031467707013996055586007333125, -845568293484346957226943354445856, 9590999024010026766674626559407357, 20664119980258914610390478258435332, 13260362635598285067681720440369179, 246260498022265098874933564153561192, -31234069686521177281591496995877480, -96073996184766250419738011111385539, -337772506525245720401867118734503893, -98239540951255689118617746876551412, 75222693816740150227144079889088123; -95222286370040602463986952515574, 429787873592777062343732552503078, 1975913496373387389442363250316806212, 1083029151278032552102409144287678, 894636809560368581080471806128866, -1255078996080862313691783331324070, 7910421863849311508219239740161301229, -4851547601298311409152530015842506, -5843396421914407662614303079289298, 2110350274676507896590437196058642, 20043016811581479573681753505295914, 1404797636033040604715678927367766390, 32562637930650656685078243951361990, 7393304774738942652238794044621086, -75049599110542517150496627433585982, -163824372246627136596212853560387462, -107832505864670236076177305580049194, -1975690085235404601205183547545087862, 242448051890957357313461231686184590, 759180963159841243243107149814574834, 2680959025288873782889582673165432808, 788249352604465269215158999809202762, -571540398455370716471684975944056218; 429787873592777062343732552503078, 1083029151278032552102409144287678, -1404702413746670564113214940415250816, 894636809560368581080471806128866, -1255078996080862313691783331324070, -4851547601298311409152530015842506, 4658346978220090940602972744046828599, -5843396421914407662614303079289298, 2110350274676507896590437196058642, 20043016811581479573681753505295914, 32562637930650656685078243951361990, -4657922440105067008857972091051812203, 7393304774738942652238794044621086, -75049599110542517150496627433585982, -163824372246627136596212853560387462, -107832505864670236076177305580049194, 242448051890957357313461231686184590, 1404797636033040604715678927367766390, 759180963159841243243107149814574834, 788249352604465269215158999809202762, 1404149686780033884733498571601031644, -571540398455370716471684975944056218, -3252499423744244499361267649109489026; 1083029151278032552102409144287678, 894636809560368581080471806128866, 4657492652231474231795628358499309125, -1255078996080862313691783331324070, -4851547601298311409152530015842506, -5843396421914407662614303079289298, 977265081660611124717021809235568, 2110350274676507896590437196058642, 20043016811581479573681753505295914, 32562637930650656685078243951361990, 7393304774738942652238794044621086, -1697867695812556508206523336307929, -75049599110542517150496627433585982, -163824372246627136596212853560387462, -107832505864670236076177305580049194, 242448051890957357313461231686184590, 759180963159841243243107149814574834, -4657922440105067008857972091051812203, 788249352604465269215158999809202762, -571540398455370716471684975944056218, -4657297059777285104076946576477255416, -3252499423744244499361267649109489026, -4656649110524278384094766220710520670; 1187440732630939331990024547735885100, -833257237577669888243993951423710172, 615467026565872850666025877080491116, 7910421863849311508219239740161301229, 4658346978220090940602972744046828599, 977265081660611124717021809235568, -496456289701053958372884226062998216, -916195068341073102171283549126070, -4429577528331552928378645658408168, -5964396606134814061385632407609434, 723040591954609382038558719343456, -2064147867564157143844937671165382126, 17720468357934612985956148927413322, 31919523932868807839723537108154280, 12524762891145518557939054362249958, -63471323502623133797968019385857456, -155730360706851545924380577295629366, -1748995736090440121097342400622146328, -124062716975487417017424355639072712, 189228399026530480194317596587193510, 1169769157183808366250755090858733570, 701826118548828191332509071960786752, 824302612064218268103843068751366346; 894636809560368581080471806128866, -1255078996080862313691783331324070, 614838544534523956104114192020251, -4851547601298311409152530015842506, -5843396421914407662614303079289298, 2110350274676507896590437196058642, -916195068341073102171283549126070, 20043016811581479573681753505295914, 32562637930650656685078243951361990, 7393304774738942652238794044621086, -75049599110542517150496627433585982, -1625214334667331106897377575970314, -163824372246627136596212853560387462, -107832505864670236076177305580049194, 242448051890957357313461231686184590, 759180963159841243243107149814574834, 788249352604465269215158999809202762, -1697867695812556508206523336307929, -571540398455370716471684975944056218, -3252499423744244499361267649109489026, 1273329580788624763205870341291533, -4656649110524278384094766220710520670, 647949253006719982180355766734746; -1255078996080862313691783331324070, -4851547601298311409152530015842506, 730577525106962525816905769841448, -5843396421914407662614303079289298, 2110350274676507896590437196058642, 20043016811581479573681753505295914, -4429577528331552928378645658408168, 32562637930650656685078243951361990, 7393304774738942652238794044621086, -75049599110542517150496627433585982, -163824372246627136596212853560387462, 1541575396122977883196798123682857, -107832505864670236076177305580049194, 242448051890957357313461231686184590, 759180963159841243243107149814574834, 788249352604465269215158999809202762, -571540398455370716471684975944056218, -1625214334667331106897377575970314, -3252499423744244499361267649109489026, -4656649110524278384094766220710520670, 2345816948819276490386879103042675, 647949253006719982180355766734746, -625380327781904781025514574556787; -4851547601298311409152530015842506, -5843396421914407662614303079289298, -286496400042115569505014792358787, 2110350274676507896590437196058642, 20043016811581479573681753505295914, 32562637930650656685078243951361990, -5964396606134814061385632407609434, 7393304774738942652238794044621086, -75049599110542517150496627433585982, -163824372246627136596212853560387462, -107832505864670236076177305580049194, 7400774804932734199791039336007630, 242448051890957357313461231686184590, 759180963159841243243107149814574834, 788249352604465269215158999809202762, -571540398455370716471684975944056218, -3252499423744244499361267649109489026, 1541575396122977883196798123682857, -4656649110524278384094766220710520670, 647949253006719982180355766734746, 999834006885426325871863001413527, -625380327781904781025514574556787, -2971197276601181271412393677599462; -5843396421914407662614303079289298, 2110350274676507896590437196058642, -2549227203634422790638509320165124, 20043016811581479573681753505295914, 32562637930650656685078243951361990, 7393304774738942652238794044621086, 723040591954609382038558719343456, -75049599110542517150496627433585982, -163824372246627136596212853560387462, -107832505864670236076177305580049194, 242448051890957357313461231686184590, 9935427889621421658669889086622423, 759180963159841243243107149814574834, 788249352604465269215158999809202762, -571540398455370716471684975944056218, -3252499423744244499361267649109489026, -4656649110524278384094766220710520670, 7400774804932734199791039336007630, 647949253006719982180355766734746, -625380327781904781025514574556787, -4512772672724159154609191801282319, -2971197276601181271412393677599462, -3971031283486607597284256679012989; -1892709672684408513674423673356230046, -1975690085235404601205183547545087862, -185004996442682940015114504534535385, 1404797636033040604715678927367766390, -4657922440105067008857972091051812203, -1697867695812556508206523336307929, -2064147867564157143844937671165382126, -1625214334667331106897377575970314, 1541575396122977883196798123682857, 7400774804932734199791039336007630, 9935427889621421658669889086622423, 2921171899592267234969460749060313178, -1264781981192160939363493841612786, -29634015835591506340356380064703271, -53226757910909571295468722209797322, -20653667410337227719920514484990265, 106283668797063694432088124429463462, 785613784342677682458851330473219531, 259898368431393387015950864671773001, 206072046815925925194795052456600606, 200106193650148974619841334259100997, -317670745707697507540605311575272713, -1172176163501827113872118348438166850; 2110350274676507896590437196058642, 20043016811581479573681753505295914, -4092031467707013996055586007333125, 32562637930650656685078243951361990, 7393304774738942652238794044621086, -75049599110542517150496627433585982, 17720468357934612985956148927413322, -163824372246627136596212853560387462, -107832505864670236076177305580049194, 242448051890957357313461231686184590, 759180963159841243243107149814574834, -1264781981192160939363493841612786, 788249352604465269215158999809202762, -571540398455370716471684975944056218, -3252499423744244499361267649109489026, -4656649110524278384094766220710520670, 647949253006719982180355766734746, 9935427889621421658669889086622423, -625380327781904781025514574556787, -2971197276601181271412393677599462, -11371806088419341797075296015020619, -3971031283486607597284256679012989, 541741389237551557324935122269330; 20043016811581479573681753505295914, 32562637930650656685078243951361990, -845568293484346957226943354445856, 7393304774738942652238794044621086, -75049599110542517150496627433585982, -163824372246627136596212853560387462, 31919523932868807839723537108154280, -107832505864670236076177305580049194, 242448051890957357313461231686184590, 759180963159841243243107149814574834, 788249352604465269215158999809202762, -29634015835591506340356380064703271, -571540398455370716471684975944056218, -3252499423744244499361267649109489026, -4656649110524278384094766220710520670, 647949253006719982180355766734746, -625380327781904781025514574556787, -1264781981192160939363493841612786, -2971197276601181271412393677599462, -3971031283486607597284256679012989, -9393686500383870101344953964353093, 541741389237551557324935122269330, 11913547477656893354400231137289949; 32562637930650656685078243951361990, 7393304774738942652238794044621086, 9590999024010026766674626559407357, -75049599110542517150496627433585982, -163824372246627136596212853560387462, -107832505864670236076177305580049194, 12524762891145518557939054362249958, 242448051890957357313461231686184590, 759180963159841243243107149814574834, 788249352604465269215158999809202762, -571540398455370716471684975944056218, -53226757910909571295468722209797322, -3252499423744244499361267649109489026, -4656649110524278384094766220710520670, 647949253006719982180355766734746, -625380327781904781025514574556787, -2971197276601181271412393677599462, -29634015835591506340356380064703271, -3971031283486607597284256679012989, 541741389237551557324935122269330, 13178329458849054293763724978902735, 11913547477656893354400231137289949, 21307233978040763455745185101643042; 7393304774738942652238794044621086, -75049599110542517150496627433585982, 20664119980258914610390478258435332, -163824372246627136596212853560387462, -107832505864670236076177305580049194, 242448051890957357313461231686184590, -63471323502623133797968019385857456, 759180963159841243243107149814574834, 788249352604465269215158999809202762, -571540398455370716471684975944056218, -3252499423744244499361267649109489026, -20653667410337227719920514484990265, -4656649110524278384094766220710520670, 647949253006719982180355766734746, -625380327781904781025514574556787, -2971197276601181271412393677599462, -3971031283486607597284256679012989, -53226757910909571295468722209797322, 541741389237551557324935122269330, 11913547477656893354400231137289949, 50941249813632269796101565166346313, 21307233978040763455745185101643042, 8128904519191709161981460122740307; -75049599110542517150496627433585982, -163824372246627136596212853560387462, 13260362635598285067681720440369179, -107832505864670236076177305580049194, 242448051890957357313461231686184590, 759180963159841243243107149814574834, -155730360706851545924380577295629366, 788249352604465269215158999809202762, -571540398455370716471684975944056218, -3252499423744244499361267649109489026, -4656649110524278384094766220710520670, 106283668797063694432088124429463462, 647949253006719982180355766734746, -625380327781904781025514574556787, -2971197276601181271412393677599462, -3971031283486607597284256679012989, 541741389237551557324935122269330, -20653667410337227719920514484990265, 11913547477656893354400231137289949, 21307233978040763455745185101643042, 61355662430101280457450182332537629, 8128904519191709161981460122740307, -42812345294440560634120105043606006; -600608787899994742443736825938684146, -1892709672684408513674423673356230046, 246260498022265098874933564153561192, -1975690085235404601205183547545087862, 1404797636033040604715678927367766390, -4657922440105067008857972091051812203, -1748995736090440121097342400622146328, -1697867695812556508206523336307929, -1625214334667331106897377575970314, 1541575396122977883196798123682857, 7400774804932734199791039336007630, 785613784342677682458851330473219531, 9935427889621421658669889086622423, -1264781981192160939363493841612786, -29634015835591506340356380064703271, -53226757910909571295468722209797322, -20653667410337227719920514484990265, -517776939357846482160446645834373710, 106283668797063694432088124429463462, 259898368431393387015950864671773001, 854505417794129606331513036862894137, 206072046815925925194795052456600606, -317670745707697507540605311575272713; -163824372246627136596212853560387462, -107832505864670236076177305580049194, -31234069686521177281591496995877480, 242448051890957357313461231686184590, 759180963159841243243107149814574834, 788249352604465269215158999809202762, -124062716975487417017424355639072712, -571540398455370716471684975944056218, -3252499423744244499361267649109489026, -4656649110524278384094766220710520670, 647949253006719982180355766734746, 259898368431393387015950864671773001, -625380327781904781025514574556787, -2971197276601181271412393677599462, -3971031283486607597284256679012989, 541741389237551557324935122269330, 11913547477656893354400231137289949, 106283668797063694432088124429463462, 21307233978040763455745185101643042, 8128904519191709161981460122740307, -22158677884103332914199590558615741, -42812345294440560634120105043606006, -104168007724541841091570287376143635; -107832505864670236076177305580049194, 242448051890957357313461231686184590, -96073996184766250419738011111385539, 759180963159841243243107149814574834, 788249352604465269215158999809202762, -571540398455370716471684975944056218, 189228399026530480194317596587193510, -3252499423744244499361267649109489026, -4656649110524278384094766220710520670, 647949253006719982180355766734746, -625380327781904781025514574556787, 206072046815925925194795052456600606, -2971197276601181271412393677599462, -3971031283486607597284256679012989, 541741389237551557324935122269330, 11913547477656893354400231137289949, 21307233978040763455745185101643042, 259898368431393387015950864671773001, 8128904519191709161981460122740307, -42812345294440560634120105043606006, -210451676521605535523658411805607097, -104168007724541841091570287376143635, -82009329840438508177370696817527894; -29068389444624025972051849994627928, 1359789751059835985686843975753258980, -337772506525245720401867118734503893, 2680959025288873782889582673165432808, 1404149686780033884733498571601031644, -4657297059777285104076946576477255416, 1169769157183808366250755090858733570, 1273329580788624763205870341291533, 2345816948819276490386879103042675, 999834006885426325871863001413527, -4512772672724159154609191801282319, 200106193650148974619841334259100997, -11371806088419341797075296015020619, -9393686500383870101344953964353093, 13178329458849054293763724978902735, 50941249813632269796101565166346313, 61355662430101280457450182332537629, 854505417794129606331513036862894137, -22158677884103332914199590558615741, -210451676521605535523658411805607097, -865650490795455327928721925521174214, -341907698271831895193321561489300895, -77629700134758897848507337468521403; 242448051890957357313461231686184590, 759180963159841243243107149814574834, -98239540951255689118617746876551412, 788249352604465269215158999809202762, -571540398455370716471684975944056218, -3252499423744244499361267649109489026, 701826118548828191332509071960786752, -4656649110524278384094766220710520670, 647949253006719982180355766734746, -625380327781904781025514574556787, -2971197276601181271412393677599462, -317670745707697507540605311575272713, -3971031283486607597284256679012989, 541741389237551557324935122269330, 11913547477656893354400231137289949, 21307233978040763455745185101643042, 8128904519191709161981460122740307, 206072046815925925194795052456600606, -42812345294440560634120105043606006, -104168007724541841091570287376143635, -341907698271831895193321561489300895, -82009329840438508177370696817527894, 128442346681167027346287714988079203; 759180963159841243243107149814574834, 788249352604465269215158999809202762, 75222693816740150227144079889088123, -571540398455370716471684975944056218, -3252499423744244499361267649109489026, -4656649110524278384094766220710520670, 824302612064218268103843068751366346, 647949253006719982180355766734746, -625380327781904781025514574556787, -2971197276601181271412393677599462, -3971031283486607597284256679012989, -1172176163501827113872118348438166850, 541741389237551557324935122269330, 11913547477656893354400231137289949, 21307233978040763455745185101643042, 8128904519191709161981460122740307, -42812345294440560634120105043606006, -317670745707697507540605311575272713, -104168007724541841091570287376143635, -82009329840438508177370696817527894, -77629700134758897848507337468521403, 128442346681167027346287714988079203, 470350044952998922539609276477380098], [293411787477700817687149794393713937135, [-85197940288582714491836165437664985002, -229247809716551011014966881927511896597, -18456090335893288576168672973739232426, -31201642283478172697081989166289462149, 80531341474895824213035395850649095805, -300293879576554767617117310934129891886, 90077095142269750552913170082844572260, 324407535389060082668129354539249872172, -241307473965960287311352138946167401838, 425604782787898262905832528161970153029, 110561696550797808451998294693006582295, 6580437200291950945604313425520758121, -194595080044905982811507429223426544874, 168370948106438851916615827323252571123, -81490081206198418045379695245610868132, 291462570135188062990322401387383160861, -115988239795820999046322475044994226035, 10935511359691622711415745979961943441, 343520985846546727135229721063394129969, -188125994328505454196612771126046011638, 192676233838656354810651336622196460854, 157700359691913620085636288683118268312, -150365572295944346677828689434614438002; 18456090335893288576168672973739232426, -85197940288582714491836165437664985002, -90077095142269750552913170082844572260, -229247809716551011014966881927511896597, -31201642283478172697081989166289462149, 80531341474895824213035395850649095805, 83496657941977799607308856657323814139, -300293879576554767617117310934129891886, 324407535389060082668129354539249872172, -241307473965960287311352138946167401838, 425604782787898262905832528161970153029, 119468696837854661840497589036545748127, 110561696550797808451998294693006582295, -194595080044905982811507429223426544874, 168370948106438851916615827323252571123, -81490081206198418045379695245610868132, 291462570135188062990322401387383160861, -192676233838656354810651336622196460854, -115988239795820999046322475044994226035, 343520985846546727135229721063394129969, 66868914353966547070519832777290623863, -188125994328505454196612771126046011638, 193430584034333677272854622445179533043; 99210070651471132032169894730424022720, 197247768723285514938790976162802334684, -32216839279511604299397291377979479506, -215157640470522682256496676927126944788, 485634235480507292469344801766769510732, -341422051855569694007219391097041167471, -146331938493724636539890155452915071627, 208333679751034528681991885711939007310, -284073231874964683819002167718963418184, -153368100989714587108825620583689288932, 299321493263925381662118399800718028873, 158068375895171493467998854319798001190, -247264834859856153157940928867493431254, 244309284223432347324917503188943639000, -372496879196184069849577151321892482786, 237474746038400951852799632731729891102, -326893242258535474598440697183360939693, -174617890357436706967348784421801632492, 85526855632118849938874604586694123044, -128308757996328708798051869729417092445, 253941655727769434517945394745763392120, -83577916373898257050971425689501673024, 207600824308580986370642378859839856894; 90077095142269750552913170082844572260, 18456090335893288576168672973739232426, -83496657941977799607308856657323814139, -85197940288582714491836165437664985002, -229247809716551011014966881927511896597, -31201642283478172697081989166289462149, -35972038895876862233188732379221933988, 80531341474895824213035395850649095805, -300293879576554767617117310934129891886, 324407535389060082668129354539249872172, -241307473965960287311352138946167401838, -19102480754408804650429309882028074455, 425604782787898262905832528161970153029, 110561696550797808451998294693006582295, -194595080044905982811507429223426544874, 168370948106438851916615827323252571123, -81490081206198418045379695245610868132, -66868914353966547070519832777290623863, 291462570135188062990322401387383160861, -115988239795820999046322475044994226035, -157458545138456815039665890065957599055, 343520985846546727135229721063394129969, -47295192778059891693735904940121602859; 83496657941977799607308856657323814139, 90077095142269750552913170082844572260, 35972038895876862233188732379221933988, 18456090335893288576168672973739232426, -85197940288582714491836165437664985002, -229247809716551011014966881927511896597, -16869558141468057582759422497193859533, -31201642283478172697081989166289462149, 80531341474895824213035395850649095805, -300293879576554767617117310934129891886, 324407535389060082668129354539249872172, -19344295307865609696399708499188743712, -241307473965960287311352138946167401838, 425604782787898262905832528161970153029, 110561696550797808451998294693006582295, -194595080044905982811507429223426544874, 168370948106438851916615827323252571123, 157458545138456815039665890065957599055, -81490081206198418045379695245610868132, 291462570135188062990322401387383160861, 64164750919527949276495327437315462392, -115988239795820999046322475044994226035, 157869728684438825052257235939343002510; -35972038895876862233188732379221933988, 83496657941977799607308856657323814139, 16869558141468057582759422497193859533, 90077095142269750552913170082844572260, 18456090335893288576168672973739232426, -85197940288582714491836165437664985002, 2474737166397552113640286001994884179, -229247809716551011014966881927511896597, -31201642283478172697081989166289462149, 80531341474895824213035395850649095805, -300293879576554767617117310934129891886, 104616948101111895223717735189541805534, 324407535389060082668129354539249872172, -241307473965960287311352138946167401838, 425604782787898262905832528161970153029, 110561696550797808451998294693006582295, -194595080044905982811507429223426544874, -64164750919527949276495327437315462392, 168370948106438851916615827323252571123, -81490081206198418045379695245610868132, -160344465850836377165897521941337886689, 291462570135188062990322401387383160861, 125390535116011384978829796830852982579; -68807332374748348137163186091330681582, -108574913373267054596319887734283935691, 229698630164427314207333516824512786620, -78653940772551480971527310263018589156, 138397438100904826613398396528702738468, -28318429723105246830814057645717648925, -59595694585223635964093352200826983243, 302282397048867040354095268173418657672, -39354138809042465679229735882000851059, -30723906789439549384537369456210254269, 123314656242035864014965617654551724227, -472704774532505126013863165590314235299, 41453226683718695877096018120135626485, 128309052259135287215073955832323967608, 23248324181297041868752347643306061224, 160344465850836377165897521941337886689, -64164750919527949276495327437315462392, -59777093754544184240564450710556890157, 157458545138456815039665890065957599055, -66868914353966547070519832777290623863, -196955643181291368463143651743864085976, -192676233838656354810651336622196460854, 497366878459954489622457365258895706194; -16869558141468057582759422497193859533, -35972038895876862233188732379221933988, -2474737166397552113640286001994884179, 83496657941977799607308856657323814139, 90077095142269750552913170082844572260, 18456090335893288576168672973739232426, -102142210934714343110077449187546921355, -85197940288582714491836165437664985002, -229247809716551011014966881927511896597, -31201642283478172697081989166289462149, 80531341474895824213035395850649095805, -78559571894598454745614463932514437746, -300293879576554767617117310934129891886, 324407535389060082668129354539249872172, -241307473965960287311352138946167401838, 425604782787898262905832528161970153029, 110561696550797808451998294693006582295, 160344465850836377165897521941337886689, -194595080044905982811507429223426544874, 168370948106438851916615827323252571123, -23248324181297041868752347643306061224, -81490081206198418045379695245610868132, 151891691299251175579536941087356451217; 2474737166397552113640286001994884179, -16869558141468057582759422497193859533, 102142210934714343110077449187546921355, -35972038895876862233188732379221933988, 83496657941977799607308856657323814139, 90077095142269750552913170082844572260, -23582639040115888364462985255032483609, 18456090335893288576168672973739232426, -85197940288582714491836165437664985002, -229247809716551011014966881927511896597, -31201642283478172697081989166289462149, 60676992082519586169460358755785849513, 80531341474895824213035395850649095805, -300293879576554767617117310934129891886, 324407535389060082668129354539249872172, -241307473965960287311352138946167401838, 425604782787898262905832528161970153029, 23248324181297041868752347643306061224, 110561696550797808451998294693006582295, -194595080044905982811507429223426544874, -128309052259135287215073955832323967608, 168370948106438851916615827323252571123, 125712857806354170411019362130953959607; -102142210934714343110077449187546921355, 2474737166397552113640286001994884179, 23582639040115888364462985255032483609, -16869558141468057582759422497193859533, -35972038895876862233188732379221933988, 83496657941977799607308856657323814139, -84259631122635474533923344010818333122, 90077095142269750552913170082844572260, 18456090335893288576168672973739232426, -85197940288582714491836165437664985002, -229247809716551011014966881927511896597, -102476525793533189605788086799273343740, -31201642283478172697081989166289462149, 80531341474895824213035395850649095805, -300293879576554767617117310934129891886, 324407535389060082668129354539249872172, -241307473965960287311352138946167401838, 128309052259135287215073955832323967608, 425604782787898262905832528161970153029, 110561696550797808451998294693006582295, -41453226683718695877096018120135626485, -194595080044905982811507429223426544874, 105097761571138148943100874866096713609; -23582639040115888364462985255032483609, -102142210934714343110077449187546921355, 84259631122635474533923344010818333122, 2474737166397552113640286001994884179, -16869558141468057582759422497193859533, -35972038895876862233188732379221933988, 18216894670897715071864742788455010618, 83496657941977799607308856657323814139, 90077095142269750552913170082844572260, 18456090335893288576168672973739232426, -85197940288582714491836165437664985002, 20466782096383924316687626566473150877, -229247809716551011014966881927511896597, -31201642283478172697081989166289462149, 80531341474895824213035395850649095805, -300293879576554767617117310934129891886, 324407535389060082668129354539249872172, 41453226683718695877096018120135626485, -241307473965960287311352138946167401838, 425604782787898262905832528161970153029, -123314656242035864014965617654551724227, 110561696550797808451998294693006582295, -28474019363953340139714485678192114010; 52981101009071110192438874059685505496, 130037739065079878982796987197087873877, -127875848157831347963721482479175839201, -166046126439807342241708986996512872535, 134626298995626858043461281076477848983, -185340355903952524852227490832639618846, 214323219246626379454975839689868500557, 17014516466509611339090036557791295299, 32973794214925758629360253234228394528, -141531550912933579086830360443006734845, 42806404438916778656827325890682706637, 282152552371357788262237335071216466492, -104726413219019398850610970577291483999, 78893886753417301241325101544240860131, -162819203017233929279537807943332770868, 81034309060996006859254749934509321925, -121486506242579952806477157686735665067, 243006144368077811806529648765801448679, -16627743588011252536789023880033190276, 102599138696386604257738166539351888594, -289475723918971498447897967535069676777, -29391601695584911287584418953701175867, -69530615471336323691788804161689136798; -84259631122635474533923344010818333122, -23582639040115888364462985255032483609, -18216894670897715071864742788455010618, -102142210934714343110077449187546921355, 2474737166397552113640286001994884179, -16869558141468057582759422497193859533, -2249887425486209244822883778018140259, -35972038895876862233188732379221933988, 83496657941977799607308856657323814139, 90077095142269750552913170082844572260, 18456090335893288576168672973739232426, -24589509768019063584962583102227696019, -85197940288582714491836165437664985002, -229247809716551011014966881927511896597, -31201642283478172697081989166289462149, 80531341474895824213035395850649095805, -300293879576554767617117310934129891886, 123314656242035864014965617654551724227, 324407535389060082668129354539249872172, -241307473965960287311352138946167401838, 30723906789439549384537369456210254269, 425604782787898262905832528161970153029, -61693761151575320019369435206210406819; 18216894670897715071864742788455010618, -84259631122635474533923344010818333122, 2249887425486209244822883778018140259, -23582639040115888364462985255032483609, -102142210934714343110077449187546921355, 2474737166397552113640286001994884179, 22339622342532854340139699324209555760, -16869558141468057582759422497193859533, -35972038895876862233188732379221933988, 83496657941977799607308856657323814139, 90077095142269750552913170082844572260, 139281663487447369842007476664988594586, 18456090335893288576168672973739232426, -85197940288582714491836165437664985002, -229247809716551011014966881927511896597, -31201642283478172697081989166289462149, 80531341474895824213035395850649095805, -30723906789439549384537369456210254269, -300293879576554767617117310934129891886, 324407535389060082668129354539249872172, 39354138809042465679229735882000851059, -241307473965960287311352138946167401838, 419224438193781555855963045514197696498; -2249887425486209244822883778018140259, 18216894670897715071864742788455010618, -22339622342532854340139699324209555760, -84259631122635474533923344010818333122, -23582639040115888364462985255032483609, -102142210934714343110077449187546921355, -116942041144914515501867777340779038826, 2474737166397552113640286001994884179, -16869558141468057582759422497193859533, -35972038895876862233188732379221933988, 83496657941977799607308856657323814139, -10634171872392904289220553910018838768, 90077095142269750552913170082844572260, 18456090335893288576168672973739232426, -85197940288582714491836165437664985002, -229247809716551011014966881927511896597, -31201642283478172697081989166289462149, -39354138809042465679229735882000851059, 80531341474895824213035395850649095805, -300293879576554767617117310934129891886, -302282397048867040354095268173418657672, 324407535389060082668129354539249872172, 77989439549416364381833165785042551133; 22339622342532854340139699324209555760, -2249887425486209244822883778018140259, 116942041144914515501867777340779038826, 18216894670897715071864742788455010618, -84259631122635474533923344010818333122, -23582639040115888364462985255032483609, -106307869272521611212647223430760200058, -102142210934714343110077449187546921355, 2474737166397552113640286001994884179, -16869558141468057582759422497193859533, -35972038895876862233188732379221933988, -133956557611424126840957813898570334125, 83496657941977799607308856657323814139, 90077095142269750552913170082844572260, 18456090335893288576168672973739232426, -85197940288582714491836165437664985002, -229247809716551011014966881927511896597, 302282397048867040354095268173418657672, -31201642283478172697081989166289462149, 80531341474895824213035395850649095805, 28318429723105246830814057645717648925, -300293879576554767617117310934129891886, 110748749762002310985087806060892604401; -116942041144914515501867777340779038826, 22339622342532854340139699324209555760, 106307869272521611212647223430760200058, -2249887425486209244822883778018140259, 18216894670897715071864742788455010618, -84259631122635474533923344010818333122, 27648688338902515628310590467810134067, -23582639040115888364462985255032483609, -102142210934714343110077449187546921355, 2474737166397552113640286001994884179, -16869558141468057582759422497193859533, 79032486631430913639580267401879418788, -35972038895876862233188732379221933988, 83496657941977799607308856657323814139, 90077095142269750552913170082844572260, 18456090335893288576168672973739232426, -85197940288582714491836165437664985002, -28318429723105246830814057645717648925, -229247809716551011014966881927511896597, -31201642283478172697081989166289462149, -138397438100904826613398396528702738468, 80531341474895824213035395850649095805, -27270142480023082960257633328949304435; 130037739065079878982796987197087873877, -166046126439807342241708986996512872535, -52981101009071110192438874059685505496, 134626298995626858043461281076477848983, -185340355903952524852227490832639618846, 17014516466509611339090036557791295299, 127875848157831347963721482479175839201, 32973794214925758629360253234228394528, -141531550912933579086830360443006734845, 42806404438916778656827325890682706637, -104726413219019398850610970577291483999, -86447371088795031491254357210692661356, 78893886753417301241325101544240860131, -162819203017233929279537807943332770868, 81034309060996006859254749934509321925, -121486506242579952806477157686735665067, -16627743588011252536789023880033190276, 101295603204455330106076978532355121795, 102599138696386604257738166539351888594, -29391601695584911287584418953701175867, -243006144368077811806529648765801448679, 11875653135601337630564359548218474305, 75152504672345118992922127845201176220; -106307869272521611212647223430760200058, -116942041144914515501867777340779038826, -27648688338902515628310590467810134067, 22339622342532854340139699324209555760, -2249887425486209244822883778018140259, 18216894670897715071864742788455010618, -51383798292528398011269676934069284721, -84259631122635474533923344010818333122, -23582639040115888364462985255032483609, -102142210934714343110077449187546921355, 2474737166397552113640286001994884179, -106977610656724342415150690608667714916, -16869558141468057582759422497193859533, -35972038895876862233188732379221933988, 83496657941977799607308856657323814139, 90077095142269750552913170082844572260, 18456090335893288576168672973739232426, 138397438100904826613398396528702738468, -85197940288582714491836165437664985002, -229247809716551011014966881927511896597, 78653940772551480971527310263018589156, -31201642283478172697081989166289462149, -164168725737462999000200901408882365886; 27648688338902515628310590467810134067, -106307869272521611212647223430760200058, 51383798292528398011269676934069284721, -116942041144914515501867777340779038826, 22339622342532854340139699324209555760, -2249887425486209244822883778018140259, 55593812364195944403881013674598430195, 18216894670897715071864742788455010618, -84259631122635474533923344010818333122, -23582639040115888364462985255032483609, -102142210934714343110077449187546921355, 114662328147278944230439310062443587814, 2474737166397552113640286001994884179, -16869558141468057582759422497193859533, -35972038895876862233188732379221933988, 83496657941977799607308856657323814139, 90077095142269750552913170082844572260, -78653940772551480971527310263018589156, 18456090335893288576168672973739232426, -85197940288582714491836165437664985002, 108574913373267054596319887734283935691, -229247809716551011014966881927511896597, -9738816591665348310604889703485523963; 114662328147278944230439310062443587814, -106977610656724342415150690608667714916, 74443926700883934578915973522489443682, 79032486631430913639580267401879418788, -133956557611424126840957813898570334125, -10634171872392904289220553910018838768, -112049616792154110018997170447530663115, 139281663487447369842007476664988594586, -24589509768019063584962583102227696019, 20466782096383924316687626566473150877, -102476525793533189605788086799273343740, 450820447876303192366634897000890023, 60676992082519586169460358755785849513, -78559571894598454745614463932514437746, 104616948101111895223717735189541805534, -19344295307865609696399708499188743712, -19102480754408804650429309882028074455, 160891297789678966070170330733182105038, 119468696837854661840497589036545748127, 6580437200291950945604313425520758121, 170102935579203678243240164623685803377, -71621004806376461976744497109105339834, -360204337292474712802499360245782682161; -51383798292528398011269676934069284721, 27648688338902515628310590467810134067, -55593812364195944403881013674598430195, -106307869272521611212647223430760200058, -116942041144914515501867777340779038826, 22339622342532854340139699324209555760, -59068515783082999826558296387845157619, -2249887425486209244822883778018140259, 18216894670897715071864742788455010618, -84259631122635474533923344010818333122, -23582639040115888364462985255032483609, -74443926700883934578915973522489443682, -102142210934714343110077449187546921355, 2474737166397552113640286001994884179, -16869558141468057582759422497193859533, -35972038895876862233188732379221933988, 83496657941977799607308856657323814139, -108574913373267054596319887734283935691, 90077095142269750552913170082844572260, 18456090335893288576168672973739232426, 68807332374748348137163186091330681582, -85197940288582714491836165437664985002, -245074041082228248959691193959157072683; 55593812364195944403881013674598430195, -51383798292528398011269676934069284721, 59068515783082999826558296387845157619, 27648688338902515628310590467810134067, -106307869272521611212647223430760200058, -116942041144914515501867777340779038826, 15375410917800934752357677134644286063, 22339622342532854340139699324209555760, -2249887425486209244822883778018140259, 18216894670897715071864742788455010618, -84259631122635474533923344010818333122, -112049616792154110018997170447530663115, -23582639040115888364462985255032483609, -102142210934714343110077449187546921355, 2474737166397552113640286001994884179, -16869558141468057582759422497193859533, -35972038895876862233188732379221933988, -68807332374748348137163186091330681582, 83496657941977799607308856657323814139, 90077095142269750552913170082844572260, 229698630164427314207333516824512786620, 18456090335893288576168672973739232426, -187020722295178680735448199783001932421]], []], [-1.08630637375875, 1.02150297409134 + 0.154278156217303*I, -1.03965891791431 + 0.310976854179689*I, 0.926256946377944 + 0.449222795607418*I, 0.333333311566230 + 0.471403368752224*I, -0.903880820351440 + 0.594238655740977*I, 0.743533877847966 + 0.705596792688457*I, -0.691088381243011 + 0.824483574709425*I, 0.491589866637919 + 0.903460209804458*I, -0.420241175877272 + 0.981001356286326*I, 0.197142943167576 + 1.02283291219058*I, -0.115337437423562 + 1.04940413785137*I], [1, y, y^22 + 3*y - 2, y^2, y^3, y^4, -2*y^22 - y^21 - 6*y + 1, y^5, y^6, y^7, y^8, -y^22 + y^21 + y^20 - 3*y + 5, y^9, y^10, y^11, y^12, y^13, -2*y^22 + y^20 + y^19 - 6*y + 4, y^14, y^15, 4*y^22 + 2*y^21 - y^19 - y^18 + 12*y - 2, y^16, -y^22 - 2*y^21 - y^20 + y^18 + y^17 - 3*y - 4], [1, 0, 0, 0, 0, 0, 0, 0, 0, 0, 0, 0, 0, 0, 0, 0, 0, 0, 0, 0, 0, -3, 2; 0, 1, 0, 0, 0, 0, 0, 0, 0, 0, 0, 0, 0, 0, 0, 0, 0, 0, 0, 0, 0, 0, -3; 0, 0, 0, 0, 0, 0, 0, 0, 0, 0, 0, 0, 0, 0, 0, 0, 0, -1, 1, -1, 3, -2, 1; 0, 0, 1, 0, 0, 0, 0, 0, 0, 0, 0, 0, 0, 0, 0, 0, 0, 0, 0, 0, 0, 0, 0; 0, 0, 0, 1, 0, 0, 0, 0, 0, 0, 0, 0, 0, 0, 0, 0, 0, 0, 0, 0, 0, 0, 0; 0, 0, 0, 0, 1, 0, 0, 0, 0, 0, 0, 0, 0, 0, 0, 0, 0, 0, 0, 0, 0, 0, 0; 0, 0, 0, 0, 0, 0, 0, 0, 0, 0, 0, 0, 0, 0, 0, 0, 0, 0, -1, -1, 1, -1, 0; 0, 0, 0, 0, 0, 1, 0, 0, 0, 0, 0, 0, 0, 0, 0, 0, 0, 0, 0, 0, 0, 0, 0; 0, 0, 0, 0, 0, 0, 1, 0, 0, 0, 0, 0, 0, 0, 0, 0, 0, 0, 0, 0, 0, 0, 0; 0, 0, 0, 0, 0, 0, 0, 1, 0, 0, 0, 0, 0, 0, 0, 0, 0, 0, 0, 0, 0, 0, 0; 0, 0, 0, 0, 0, 0, 0, 0, 1, 0, 0, 0, 0, 0, 0, 0, 0, 0, 0, 0, 0, 0, 0; 0, 0, 0, 0, 0, 0, 0, 0, 0, 0, 0, 0, 0, 0, 0, 0, 0, 0, 1, -1, 1, 0, 0; 0, 0, 0, 0, 0, 0, 0, 0, 0, 1, 0, 0, 0, 0, 0, 0, 0, 0, 0, 0, 0, 0, 0; 0, 0, 0, 0, 0, 0, 0, 0, 0, 0, 1, 0, 0, 0, 0, 0, 0, 0, 0, 0, 0, 0, 0; 0, 0, 0, 0, 0, 0, 0, 0, 0, 0, 0, 1, 0, 0, 0, 0, 0, 0, 0, 0, 0, 0, 0; 0, 0, 0, 0, 0, 0, 0, 0, 0, 0, 0, 0, 1, 0, 0, 0, 0, 0, 0, 0, 0, 0, 0; 0, 0, 0, 0, 0, 0, 0, 0, 0, 0, 0, 0, 0, 1, 0, 0, 0, 0, 0, 0, 0, 0, 0; 0, 0, 0, 0, 0, 0, 0, 0, 0, 0, 0, 0, 0, 0, 0, 0, 0, 1, -1, 1, 0, 0, 0; 0, 0, 0, 0, 0, 0, 0, 0, 0, 0, 0, 0, 0, 0, 1, 0, 0, 0, 0, 0, 0, 0, 0; 0, 0, 0, 0, 0, 0, 0, 0, 0, 0, 0, 0, 0, 0, 0, 1, 0, 0, 0, 0, 0, 0, 0; 0, 0, 0, 0, 0, 0, 0, 0, 0, 0, 0, 0, 0, 0, 0, 0, 0, 1, -1, 0, 0, 0, 0; 0, 0, 0, 0, 0, 0, 0, 0, 0, 0, 0, 0, 0, 0, 0, 0, 1, 0, 0, 0, 0, 0, 0; 0, 0, 0, 0, 0, 0, 0, 0, 0, 0, 0, 0, 0, 0, 0, 0, 0, 1, 0, 0, 0, 0, 0], [1, 0, 0, 0, 0, 0, 0, 0, 0, 0, 0, 0, 0, 0, 0, 0, 0, 0, 0, 0, 0, 0, 0, 0, 0, -1, 0, 0, 0, 0, 0, 0, 0, 0, 0, 0, 0, 0, 0, 0, -1, 0, 0, 0, 0, 0, 0, -1, 0, 0, 0, 0, 0, 0, 0, 0, 0, 0, 0, 0, 0, 0, 0, 0, 0, 0, 0, 0, 0, 0, 0, 0, 0, 0, 0, 1, 0, 0, 0, 0, 1, 0, 0, 0, 0, 0, -1, 0, 0, 1, 0, 0, 0, 0, 0, 0, 0, 0, 0, 0, 0, 0, 0, -1, 0, 0, 0, 0, 0, 1, 0, 0, 1, 0, -2, 0, 0, 0, 0, 0, 0, 0, 0, 0, 0, 0, 0, 0, 0, 0, 0, 0, -1, 0, 0, -1, 0, -1, 0, 0, 0, 1, 0, 0, 0, 0, 0, 0, 0, 0, 0, 0, 0, 0, 0, 0, 0, 0, 0, 0, 0, 0, 0, 0, 0, 0, 0, 0, 0, 0, 0, 0, 0, 0, 0, 0, 0, 0, 0, 0, 0, 1, -3, 1, 0, 0, 0, 0, 0, 0, 0, 0, 0, 0, 0, 0, 0, 0, 0, 0, 0, 0, 0, -3, 0, 2, -1, 0, 0, 0, 0, 0, 0, 0, 0, 0, 0, 0, 0, 0, 0, 0, 0, 0, 0, -3, 2, 0, -1, 0, 0, 0, 0, 0, 0, 0, 0, 0, 0, 0, 0, 0, 0, 0, 0, 0, -3, 0, 2, -1, 0, 0, 0, 0, 0, 0, 1, -1, 0, 0, 0, 0, 0, 0, 0, 0, 0, 0, 0, 0, 0, 0, 0, 0, 0, 0, 0, 0, 0, 0, 0, 0, 0, 0, 0, 0, 0, 0, 0, 0, 0, -3, 2, 0, -1, 0, 0, 0, 0, 0, 0, 0, 0, 0, 0, 0, 0, 0, 0, 0, 0, 0, 0, -3, 2, -1, 0, 0, 0, 0, 0, 0, 0, 0, 0, 0, 0, 0, 0, 0, 0, 0, 0, 0, 0, -3, 2, -1, 0, 0, 0, 0, 0, 0, 0, 0, 0, 0, 0, 0, 0, 0, 0, 0, 0, 0, 0, -3, 2, -1, 0, 0, 0, 0, 0, 0, 0, 0, 0, 0, 0, 0, 0, 0, 0, 0, 0, 0, -3, 0, 2, -1, 0, 0, 0, 0, 0, 0, 0, 0, 0, 0, -1, 0, -1, 1, -1, 0, 0, 0, 0, 0, 0, 0, 0, 0, 0, 0, 0, 0, 0, 0, 0, 0, 0, 0, 0, 0, 0, 0, 0, 0, 0, -3, 2, 0, -1, 0, 0, 0, 0, 0, 0, 0, 0, 0, 0, 0, 0, 0, 0, 0, 0, 0, 0, -3, 2, -1, 0, 0, 0, 0, 0, 0, 0, 0, 0, 0, 0, 0, 0, 0, 0, 1, 1, -1, 0, 1, 0, 0, 0, 0, 0, 0, 0, 0, 0, 0, 0, 0, 0, 0, 0, 0, 0, 0, 0, 0, 0, 0, -3, 2, -1, 0, 0, 0, 0, 0, 0, 0, 0, 0, 0, 0, 0, 0, 0, 0, 0, 0, -2, -1, 0, 1, -1, 0, 0, 0, 0, 0, 0, 0, 0, 0, 0, 0, 0, 0, 0; 0, 1, 0, 0, 0, 0, 0, 0, 0, 0, 0, 0, 0, 0, 0, 0, 0, 0, 0, 0, 0, 0, 0, 1, 0, 0, 0, 0, 0, 0, 0, 0, 0, 0, 0, 0, 0, 0, 0, 0, 0, 0, 0, 0, 0, 0, 0, 0, 0, -1, 0, 0, 0, 0, 0, 0, 0, 0, 0, 0, 0, 0, 0, 0, 0, 0, 0, 0, 0, 0, 0, -1, 0, 0, 0, 0, 0, 0, 0, 0, 0, 0, 0, 0, 0, 0, -1, 0, 0, 0, 0, 0, 0, 0, 0, 0, 0, 0, 1, 0, 0, 0, 0, 1, 0, 0, 0, 0, 0, -1, 0, 0, 1, 0, 0, 0, 0, 0, 0, 0, 0, 0, 0, 0, 0, 0, -1, 0, 0, 0, 0, 0, 1, 0, 0, 1, 0, -2, 0, 0, 0, 0, 1, 0, 0, 0, 0, 0, 0, 0, 0, 0, 0, 0, 0, 0, 0, 0, 0, 0, 0, 0, 0, 0, 0, 0, 0, 0, 0, 0, 0, 0, 0, 0, 0, 0, 0, 0, -1, 0, 0, -1, 0, -1, 0, 0, 0, 0, 0, 0, 0, 0, 0, 0, 0, 0, 0, 0, 0, 0, 0, 0, 0, 0, 1, -3, 1, 0, 0, 0, 0, 0, 0, 0, 0, 0, 0, 0, 0, 0, 0, 0, 0, 0, 0, 0, -3, 0, 2, -1, 0, 0, 0, 0, 0, 0, 0, 0, 0, 0, 0, 0, 0, 0, 0, 0, 0, 0, -3, 2, 0, -1, 0, 0, 0, 0, 0, 1, -1, 0, 0, 0, 0, 0, 0, 0, 0, 0, 0, 0, 0, 0, 0, 0, 0, 0, 0, 0, 0, 0, 0, 0, 0, 0, 0, 0, 0, 0, 0, 0, 0, 0, -3, 0, 2, -1, 0, 0, 0, 0, 0, 0, 0, 0, 0, 0, 0, 0, 0, 0, 0, 0, 0, 0, -3, 2, 0, -1, 0, 0, 0, 0, 0, 0, 0, 0, 0, 0, 0, 0, 0, 0, 0, 0, 0, 0, -3, 2, -1, 0, 0, 0, 0, 0, 0, 0, 0, 0, 0, 0, 0, 0, 0, 0, 0, 0, 0, 0, -3, 2, -1, 0, 0, 0, 0, 0, 0, 0, 0, 0, 0, 0, 0, 0, 0, 0, 0, 0, 0, 0, -3, 2, -1, 0, 0, 0, 0, 0, 0, 0, 0, 0, 0, 0, -1, -1, 1, 0, -1, 0, 0, 0, 0, 0, 0, 0, 0, 0, 0, 0, 0, 0, 0, 0, 0, 0, 0, 0, 0, 0, 0, 0, 0, 0, -3, 0, 2, -1, 0, 0, 0, 0, 0, 0, 0, 0, 0, 0, 0, 0, 0, 0, 0, 0, 0, 0, -3, 2, 0, -1, 0, 0, 0, 0, 0, 0, 0, 0, 0, 0, 0, 0, 0, 0, 1, 1, 0, -1, 1, 0, 0, 0, 0, 0, 0, 0, 0, 0, 0, 0, 0, 0, 0, 0, 0, 0, 0, 0, 0, 0, 0, -3, 2, -1, 0, 0, 0, 0, 0, 0, 0, 0, 0, 0, 0, 0, 0, 0, 0, 0, 0, -2, 0, -1, 1, -1, 0, 0, 0, 0, 0, 0, 0, 0, 0, 0, 0, 0, 0; 0, 0, 1, 0, 0, 0, 0, 0, 0, 0, 0, 0, 0, 0, 0, 0, 0, 0, 0, 0, 0, 0, 0, 0, 0, 0, 0, 0, 0, -1, 0, 0, 0, 0, -1, 0, 0, 0, 0, 0, 1, 0, 0, 0, -1, 0, 1, 0, 0, 0, 0, 0, 0, 0, 0, 0, 0, 1, 0, 0, 0, 0, 0, 0, 0, 0, 0, 0, 0, 0, 0, 0, 0, 0, 0, 0, 0, 0, 0, 0, 1, 0, 0, 0, 0, 0, -1, 0, -1, -1, 1, 1, 0, 0, 0, 0, 0, 0, 0, 0, 0, 0, 0, 0, 0, 0, 0, 0, 0, 1, -1, 1, 1, -1, 1, 0, 0, 0, 0, 0, 0, 0, 0, 0, 0, 0, 0, 0, 0, 0, 0, -1, 0, 1, -1, -1, 3, -1, 0, -1, 0, 0, 0, 0, 1, 0, 0, 0, 0, 0, 0, 0, 0, 0, 0, 0, 0, 0, -1, 0, 1, 0, 0, 0, 0, 0, 0, 0, 0, 0, 0, 0, 0, 0, 0, 0, -1, 1, 0, -1, 3, 0, -2, 1, 0, 0, 0, 0, 0, 0, 0, 0, 0, 0, 0, 0, 0, 0, -1, 1, -1, 0, 3, -2, 0, 1, 0, 0, 0, 0, 0, 0, 0, 0, 0, 0, 0, 0, 0, 0, -1, 1, -1, 3, 0, -2, 1, 0, 0, 0, 0, 0, 0, 0, 0, 0, 0, 0, 0, 0, 0, 0, -1, 1, -1, 3, -2, 0, 1, 0, 0, 0, 0, 0, -1, 1, 1, 0, 0, 0, 0, 0, 0, 0, -1, 0, 0, 0, 0, 0, -1, 0, 0, 1, 0, 1, 0, 0, 0, 0, 0, 0, 0, 0, 0, 0, -1, 0, 1, -1, 3, -2, 1, 0, 0, 0, 0, 0, 0, 0, 0, 0, 0, 0, 0, 0, 0, 0, -1, 1, 0, -1, 3, -2, 1, 0, 0, 0, 0, 0, 0, 0, 0, 0, 0, 0, 0, 0, 0, 0, -1, 1, -1, 0, 3, -2, 1, 0, 0, 0, 0, 0, 0, 0, 0, 0, 0, 0, 0, 0, 0, 0, -1, 1, -1, 3, 0, -2, 1, 0, 0, 0, 0, 0, 0, 0, 0, 0, 0, 0, 0, 0, 0, -1, 0, 1, -1, 3, -2, 0, 1, 0, 0, 0, 0, 0, 0, 0, 0, 0, 0, 0, 1, 0, -1, 1, 0, 0, 0, 0, 0, 0, -1, 0, 0, 0, 0, 0, -1, 0, 0, -1, 0, 2, 0, 0, 0, 0, -1, 1, 0, -1, 3, -2, 1, 0, 0, 0, 0, 0, 0, 0, 0, 0, 0, 0, 0, 0, 0, 0, -1, 1, -1, 0, 3, -2, 1, 0, 0, 0, 0, 0, 0, 0, 0, 0, 0, 0, 0, 0, 0, 0, 0, -1, 1, -1, -1, 0, 0, 0, 0, 1, 0, 0, 0, 0, 0, -1, 0, 0, 3, 0, -2, 0, -1, 0, 1, -1, 3, 0, -2, 1, 0, 0, 0, 0, 0, 0, 0, 0, 0, 0, 0, 0, 0, 0, 0, 0, 0, 1, 1, -1, 1, 1, 0, 0, 0, 1, 0, 0, 0, 0, 0, 2, 0, 0, -2, 0, 0; 0, 0, 0, 1, 0, 0, 0, 0, 0, 0, 0, 0, 0, 0, 0, 0, 0, 0, 0, 0, 0, 0, 0, 0, 1, 0, 0, 0, 0, 0, 0, 0, 0, 0, 0, 0, 0, 0, 0, 0, 0, 0, 0, 0, 0, 0, 0, 0, 0, 0, -1, 0, 0, 0, 0, 0, 0, 0, 0, 0, 0, 0, 0, 0, 0, 0, 0, 0, 0, 1, 0, 0, 0, 0, 0, 0, 0, 0, 0, 0, 0, 0, 0, 0, 0, 0, 0, 0, 0, 0, 0, 0, 0, 0, -1, 0, 0, 0, 0, 0, 0, 0, 0, 0, 0, 0, 0, 0, 0, -1, 0, 0, 0, 0, 0, 0, 0, 0, 0, 0, 0, 1, 0, 0, 0, 0, 1, 0, 0, 0, 0, 0, -1, 0, 0, 1, 0, 0, 0, 0, 0, 0, 0, 1, 0, 0, 0, 0, 0, 0, 0, 0, 0, 0, 0, 0, 0, 0, 0, 0, 0, 0, 0, 0, 0, 0, 0, 0, 0, 0, 0, 0, -1, 0, 0, 0, 0, 0, 1, 0, 0, 1, 0, -2, 0, 0, 0, 0, 0, 0, 0, 0, 0, 0, 0, 0, 0, 0, 0, 0, 0, -1, 0, 0, -1, 0, -1, 0, 0, 0, 0, 0, 0, 0, 0, 0, 0, 0, 0, 0, 0, 0, 0, 0, 0, 0, 0, 1, -3, 1, 0, 0, 0, 0, 0, 0, 0, 0, 0, 0, 0, 0, 0, 0, 0, 0, 0, 0, 0, -3, 0, 2, -1, 0, 0, 0, 0, 0, 1, 0, -1, 0, 0, 0, 0, 0, 0, 0, 0, 0, 0, 0, 0, 0, 0, 0, 0, 0, 0, 0, 0, 0, 0, 0, 0, 0, 0, 0, 0, 0, 0, 0, 0, 0, -3, 2, 0, -1, 0, 0, 0, 0, 0, 0, 0, 0, 0, 0, 0, 0, 0, 0, 0, 0, 0, -3, 0, 2, -1, 0, 0, 0, 0, 0, 0, 0, 0, 0, 0, 0, 0, 0, 0, 0, 0, 0, 0, -3, 2, 0, -1, 0, 0, 0, 0, 0, 0, 0, 0, 0, 0, 0, 0, 0, 0, 0, 0, 0, 0, -3, 2, -1, 0, 0, 0, 0, 0, 0, 0, 0, 0, 0, 0, 0, 0, 0, 0, 0, 0, 0, 0, -3, 2, -1, 0, 0, 0, 0, 0, 0, 0, 0, 0, 0, 0, -1, -1, 0, 1, -1, 0, 0, 0, 0, 0, 0, 0, 0, 0, 0, 0, 0, 0, 0, 0, 0, 0, 0, 0, 0, 0, 0, 0, 0, 0, 0, -3, 2, -1, 0, 0, 0, 0, 0, 0, 0, 0, 0, 0, 0, 0, 0, 0, 0, 0, 0, 0, -3, 0, 2, -1, 0, 0, 0, 0, 0, 0, 0, 0, 0, 0, 0, 0, 0, 0, 1, 0, 1, -1, 1, 0, 0, 0, 0, 0, 0, 0, 0, 0, 0, 0, 0, 0, 0, 0, 0, 0, 0, 0, 0, 0, 0, -3, 2, 0, -1, 0, 0, 0, 0, 0, 0, 0, 0, 0, 0, 0, 0, 0, 0, 0, 0, 0, -2, -1, 1, -1, 0, 0, 0, 0, 0, 0, 0, 0, 0, 0, 0, 0; 0, 0, 0, 0, 1, 0, 0, 0, 0, 0, 0, 0, 0, 0, 0, 0, 0, 0, 0, 0, 0, 0, 0, 0, 0, 0, 1, 0, 0, 0, 0, 0, 0, 0, 0, 0, 0, 0, 0, 0, 0, 0, 0, 0, 0, 0, 0, 0, 0, 0, 0, -1, 0, 0, 0, 0, 0, 0, 0, 0, 0, 0, 0, 0, 0, 0, 0, 0, 0, 0, 1, 0, 0, 0, 0, 0, 0, 0, 0, 0, 0, 0, 0, 0, 0, 0, 0, 0, 0, 0, 0, 0, 1, 0, 0, 0, 0, 0, 0, 0, 0, 0, 0, 0, 0, 0, 0, 0, 0, 0, 0, 0, 0, 0, 0, 0, 0, -1, 0, 0, 0, 0, 0, 0, 0, 0, 0, 0, 0, 0, 0, 0, -1, 0, 0, 0, 0, 0, 0, 0, 0, 0, 0, 0, 0, 1, 0, 0, 0, 0, 0, 0, 0, 0, 0, 0, 0, 0, 0, 0, 0, 0, 0, 0, 0, 0, 0, 1, 0, 0, 0, 0, 1, 0, 0, 0, 0, 0, -1, 0, 0, 1, 0, 0, 0, 0, 0, 0, 0, 0, 0, 0, 0, 0, 0, -1, 0, 0, 0, 0, 0, 1, 0, 0, 1, 0, -2, 0, 0, 0, 0, 0, 0, 0, 0, 0, 0, 0, 0, 0, 0, 0, 0, 0, -1, 0, 0, -1, 0, -1, 0, 0, 0, 0, 0, 0, 0, 0, 0, 0, 0, 0, 0, 0, 0, 0, 0, 0, 0, 0, 1, -3, 1, 0, 0, 0, 0, 0, 0, 0, 1, -1, 0, 0, 0, 0, 0, 0, 0, 0, 0, 0, 0, 0, 0, 0, 0, 0, 0, 0, 0, 0, 0, 0, 0, 0, 0, 0, 0, 0, 0, 0, 0, 0, 0, -3, 0, 2, -1, 0, 0, 0, 0, 0, 0, 0, 0, 0, 0, 0, 0, 0, 0, 0, 0, 0, 0, -3, 2, 0, -1, 0, 0, 0, 0, 0, 0, 0, 0, 0, 0, 0, 0, 0, 0, 0, 0, 0, -3, 0, 2, -1, 0, 0, 0, 0, 0, 0, 0, 0, 0, 0, 0, 0, 0, 0, 0, 0, 0, 0, -3, 2, 0, -1, 0, 0, 0, 0, 0, 0, 0, 0, 0, 0, 0, 0, 0, 0, 0, 0, 0, 0, -3, 2, -1, 0, 0, 0, 0, 0, 0, 0, 0, 0, 0, 0, -1, 0, -1, 1, -1, 0, 0, 0, 0, 0, 0, 0, 0, 0, 0, 0, 0, 0, 0, 0, 0, 0, 0, 0, 0, 0, 0, 0, 0, 0, 0, -3, 2, -1, 0, 0, 0, 0, 0, 0, 0, 0, 0, 0, 0, 0, 0, 0, 0, 0, 0, 0, 0, -3, 2, -1, 0, 0, 0, 0, 0, 0, 0, 0, 0, 0, 0, 0, 0, 0, 0, 1, 1, -1, 1, 0, 0, 0, 0, 0, 0, 0, 0, 0, 0, 0, 0, 0, 0, 0, 0, 0, 0, 0, 0, 0, 0, -3, 0, 2, -1, 0, 0, 0, 0, 0, 0, 0, 0, 0, 0, 0, 0, 0, 0, 0, 0, 0, -2, -1, 1, 0, -1, 0, 0, 0, 0, 0, 0, 0, 0, 0, 0; 0, 0, 0, 0, 0, 1, 0, 0, 0, 0, 0, 0, 0, 0, 0, 0, 0, 0, 0, 0, 0, 0, 0, 0, 0, 0, 0, 1, 0, 0, 0, 0, 0, 0, 0, 0, 0, 0, 0, 0, 0, 0, 0, 0, 0, 0, 0, 0, 0, 0, 0, 0, 0, -1, 0, 0, 0, 0, 0, 0, 0, 0, 0, 0, 0, 0, 0, 0, 0, 0, 0, 0, 1, 0, 0, 0, 0, 0, 0, 0, 0, 0, 0, 0, 0, 0, 0, 0, 0, 0, 0, 0, 0, 1, 0, 0, 0, 0, 0, 0, 0, 0, 0, 0, 0, 0, 0, 0, 0, 0, 0, 0, 0, 0, 0, 1, 0, 0, 0, 0, 0, 0, 0, 0, 0, 0, 0, 0, 0, 0, 0, 0, 0, 0, 0, 0, 0, 0, 0, 0, 0, 0, 0, 0, 0, 0, 1, 0, 0, 0, 0, 0, 0, 0, 0, 0, 0, 0, 0, 0, 0, 0, 0, -1, 0, 0, 0, 0, 0, 0, 0, 0, 0, 0, 0, 0, 0, 0, -1, 0, 0, 0, 0, 0, 0, 0, 0, 0, 0, 0, 1, 0, 0, 0, 0, 1, 0, 0, 0, 0, 0, -1, 0, 0, 1, 0, 0, 0, 0, 0, 0, 0, 0, 0, 0, 0, 0, 0, -1, 0, 0, 0, 0, 0, 1, 0, 0, 1, 0, -2, 0, 0, 0, 0, 0, 0, 0, 0, 0, 0, 0, 0, 0, 0, 0, 0, 0, -1, 0, 0, -1, 0, -1, 0, 0, 0, 0, 0, 0, 0, 0, 1, -1, 0, 0, 0, 0, 0, 0, 0, 0, 0, 0, 0, 0, 0, 0, 0, 0, 0, 0, 0, 0, 0, 0, 0, 0, 0, 0, 0, 0, 0, 0, 0, 0, 0, 1, -3, 1, 0, 0, 0, 0, 0, 0, 0, 0, 0, 0, 0, 0, 0, 0, 0, 0, 0, 0, 0, -3, 0, 2, -1, 0, 0, 0, 0, 0, 0, 0, 0, 0, 0, 0, 0, 0, 0, 0, 0, 0, 0, -3, 2, 0, -1, 0, 0, 0, 0, 0, 0, 0, 0, 0, 0, 0, 0, 0, 0, 0, 0, 0, -3, 0, 2, -1, 0, 0, 0, 0, 0, 0, 0, 0, 0, 0, 0, 0, 0, 0, 0, 0, 0, 0, -3, 2, 0, -1, 0, 0, 0, 0, 0, 0, 0, 0, 0, 0, 0, -1, -1, 1, -1, 0, 0, 0, 0, 0, 0, 0, 0, 0, 0, 0, 0, 0, 0, 0, 0, 0, 0, 0, 0, 0, 0, 0, 0, 0, 0, -3, 2, -1, 0, 0, 0, 0, 0, 0, 0, 0, 0, 0, 0, 0, 0, 0, 0, 0, 0, 0, 0, -3, 2, -1, 0, 0, 0, 0, 0, 0, 0, 0, 0, 0, 0, 0, 0, 0, 0, 1, 1, -1, 0, 1, 0, 0, 0, 0, 0, 0, 0, 0, 0, 0, 0, 0, 0, 0, 0, 0, 0, 0, 0, 0, 0, 0, -3, 2, -1, 0, 0, 0, 0, 0, 0, 0, 0, 0, 0, 0, 0, 0, 0, 0, 0, 0, -2, -1, 0, 1, -1, 0, 0, 0, 0, 0, 0, 0, 0, 0; 0, 0, 0, 0, 0, 0, 1, 0, 0, 0, 0, 0, 0, 0, 0, 0, 0, 0, 0, 0, 0, 0, 0, 0, 0, 0, 0, 0, 0, 0, 0, 0, 0, 0, -1, 0, 0, 0, 0, 0, 0, 0, 0, 0, 0, -1, 0, 0, 1, 0, 0, 0, -1, 0, 0, 0, 0, -1, 0, 0, 0, 0, 0, 0, 0, 0, 1, 0, 0, 0, 0, 0, 0, 0, 0, 0, 0, 0, 0, 0, 0, 0, 0, 0, 0, 0, -1, 0, 0, 0, -1, 0, 0, 0, 0, 0, 0, 0, 0, 0, 0, 0, 0, 0, 0, 0, 0, 0, 0, 0, 0, -1, 1, -1, 0, 0, 0, 0, 0, 0, 0, 0, 0, 0, 0, 0, 0, 0, 0, 0, 0, 0, 0, -1, -1, 0, 1, -1, 1, 0, -1, 0, 0, 0, 0, 0, 0, 0, 0, 2, 0, 0, 0, 0, 0, 1, 0, 0, 0, 0, -2, 0, 0, 0, 0, 0, 0, 0, 0, 0, 0, 0, 0, 0, 0, 0, 0, -1, 0, -1, 1, 0, -1, 0, 0, 0, 0, 0, 0, 0, 0, 0, 0, 0, 0, 0, 0, 0, 0, -1, -1, 0, 1, -1, 0, 0, 0, 0, 0, 0, 0, 0, 0, 0, 0, 0, 0, 0, 0, 0, 0, -1, -1, 1, 0, -1, 0, 0, 0, 0, 0, 0, 0, 0, 0, 0, 0, 0, 0, 0, 0, 0, 0, -1, -1, 1, -1, 0, 0, 0, 0, 0, 0, 0, -1, -1, 0, 0, 0, 2, 0, 0, 0, 0, 0, 0, 0, 0, 0, 0, 1, 0, 0, -4, 0, 2, 0, 0, 0, 0, 0, 0, 0, 0, 0, 0, 0, 0, -1, -1, 1, -1, 0, 0, 0, 0, 0, 0, 0, 0, 0, 0, 0, 0, 0, 0, 0, 0, 0, -1, 0, -1, 1, -1, 0, 0, 0, 0, 0, 0, 0, 0, 0, 0, 0, 0, 0, 0, 0, 0, 0, -1, -1, 0, 1, -1, 0, 0, 0, 0, 0, 0, 0, 0, 0, 0, 0, 0, 0, 0, 0, 0, 0, -1, -1, 1, 0, -1, 0, 0, 0, 0, 0, 0, 0, 0, 0, 0, 0, 0, 0, 0, 0, 0, 0, -1, -1, 1, -1, 0, 0, 0, 0, 0, 0, 0, 0, 0, 0, 0, 0, 0, 0, 0, -1, 0, 0, 1, 0, 0, 0, 0, 1, 0, 0, 0, 0, 0, 3, 0, 0, -3, 0, 0, 0, 0, 0, 0, 0, -1, 0, -1, 1, -1, 0, 0, 0, 0, 0, 0, 0, 0, 0, 0, 0, 0, 0, 0, 0, 0, 0, -1, -1, 0, 1, -1, 0, 0, 0, 0, 0, 0, 0, 0, 0, 0, 0, 0, 0, 0, 0, 0, 1, 0, 1, 0, 0, 0, 0, 0, 0, -4, 0, 0, 0, 0, 0, -3, 0, 0, 0, 0, 4, 0, 0, 0, -1, -1, 1, 0, -1, 0, 0, 0, 0, 0, 0, 0, 0, 0, 0, 0, 0, 0, 0, 0, 0, -1, 0, 0, 0, -1, -2, 0, 0, 0, 0, 2, 0, 0, 0, 0, 0, 0, 0, 0, 4, 0, -4; 0, 0, 0, 0, 0, 0, 0, 1, 0, 0, 0, 0, 0, 0, 0, 0, 0, 0, 0, 0, 0, 0, 0, 0, 0, 0, 0, 0, 1, 0, 0, 0, 0, 0, 0, 0, 0, 0, 0, 0, 0, 0, 0, 0, 0, 0, 0, 0, 0, 0, 0, 0, 0, 0, -1, 0, 0, 0, 0, 0, 0, 0, 0, 0, 0, 0, 0, 0, 0, 0, 0, 0, 0, 1, 0, 0, 0, 0, 0, 0, 0, 0, 0, 0, 0, 0, 0, 0, 0, 0, 0, 0, 0, 0, 0, 1, 0, 0, 0, 0, 0, 0, 0, 0, 0, 0, 0, 0, 0, 0, 0, 0, 0, 0, 0, 0, 1, 0, 0, 0, 0, 0, 0, 0, 0, 0, 0, 0, 0, 0, 0, 0, 0, 0, 0, 0, 0, 0, 0, 0, 0, 0, 0, 0, 0, 0, 0, 1, 0, 0, 0, 0, 0, 0, 0, 0, 0, 0, 0, 0, 0, 1, 0, 0, 0, 0, 0, 0, 0, 0, 0, 0, 0, 0, 0, 0, 0, 0, 0, 0, 0, 0, 0, 0, 0, 0, -1, 0, 0, 0, 0, 0, 0, 0, 0, 0, 0, 0, 0, 0, 0, -1, 0, 0, 0, 0, 0, 0, 0, 0, 0, 0, 0, 1, 0, 0, 0, 0, 1, 0, 0, 0, 0, 0, -1, 0, 0, 1, 0, 0, 0, 0, 0, 0, 0, 0, 0, 0, 0, 0, 0, -1, 0, 0, 0, 0, 0, 1, 0, 0, 1, 0, -2, 0, 0, 0, 0, 0, 0, 0, 0, 0, 1, -1, 0, 0, 0, 0, 0, 0, 0, 0, 0, 0, 0, 0, 0, 0, 0, 0, 0, 0, 0, 0, 0, 0, 0, 0, 0, 0, 0, 0, 0, -1, 0, 0, -1, 0, -1, 0, 0, 0, 0, 0, 0, 0, 0, 0, 0, 0, 0, 0, 0, 0, 0, 0, 0, 0, 0, 1, -3, 1, 0, 0, 0, 0, 0, 0, 0, 0, 0, 0, 0, 0, 0, 0, 0, 0, 0, 0, 0, -3, 0, 2, -1, 0, 0, 0, 0, 0, 0, 0, 0, 0, 0, 0, 0, 0, 0, 0, 0, 0, 0, -3, 2, 0, -1, 0, 0, 0, 0, 0, 0, 0, 0, 0, 0, 0, 0, 0, 0, 0, 0, 0, -3, 0, 2, -1, 0, 0, 0, 0, 0, 0, 0, 0, 0, 0, 0, -1, -1, 1, 0, -1, 0, 0, 0, 0, 0, 0, 0, 0, 0, 0, 0, 0, 0, 0, 0, 0, 0, 0, 0, 0, 0, 0, 0, 0, 0, -3, 2, 0, -1, 0, 0, 0, 0, 0, 0, 0, 0, 0, 0, 0, 0, 0, 0, 0, 0, 0, 0, -3, 2, -1, 0, 0, 0, 0, 0, 0, 0, 0, 0, 0, 0, 0, 0, 0, 0, 1, 1, 0, -1, 1, 0, 0, 0, 0, 0, 0, 0, 0, 0, 0, 0, 0, 0, 0, 0, 0, 0, 0, 0, 0, 0, 0, -3, 2, -1, 0, 0, 0, 0, 0, 0, 0, 0, 0, 0, 0, 0, 0, 0, 0, 0, 0, -2, 0, -1, 1, -1, 0, 0, 0, 0, 0, 0, 0, 0; 0, 0, 0, 0, 0, 0, 0, 0, 1, 0, 0, 0, 0, 0, 0, 0, 0, 0, 0, 0, 0, 0, 0, 0, 0, 0, 0, 0, 0, 0, 1, 0, 0, 0, 0, 0, 0, 0, 0, 0, 0, 0, 0, 0, 0, 0, 0, 0, 0, 0, 0, 0, 0, 0, 0, -1, 0, 0, 0, 0, 0, 0, 0, 0, 0, 0, 0, 0, 0, 0, 0, 0, 0, 0, 1, 0, 0, 0, 0, 0, 0, 0, 0, 0, 0, 0, 0, 0, 0, 0, 0, 0, 0, 0, 0, 0, 1, 0, 0, 0, 0, 0, 0, 0, 0, 0, 0, 0, 0, 0, 0, 0, 0, 0, 0, 0, 0, 0, 1, 0, 0, 0, 0, 0, 0, 0, 0, 0, 0, 0, 0, 0, 0, 0, 0, 0, 0, 0, 0, 0, 0, 0, 0, 0, 0, 0, 0, 0, 1, 0, 0, 0, 0, 0, 0, 0, 0, 0, 0, 0, 0, 0, 1, 0, 0, 0, 0, 0, 0, 0, 0, 0, 0, 0, 0, 0, 0, 0, 0, 0, 0, 0, 0, 0, 1, 0, 0, 0, 0, 0, 0, 0, 0, 0, 0, 0, 0, 0, 0, 0, 0, 0, 0, 0, 0, 0, 0, 0, 0, -1, 0, 0, 0, 0, 0, 0, 0, 0, 0, 0, 0, 0, 0, 0, -1, 0, 0, 0, 0, 0, 0, 0, 0, 0, 0, 0, 1, 0, 0, 0, 0, 1, 0, 0, 0, 0, 0, -1, 0, 0, 1, 0, 0, 0, 0, 0, 0, 0, 0, 0, 0, 0, 0, 1, 0, -1, 0, 0, 0, 0, 0, 0, 0, 0, 0, 0, 0, 0, 0, 0, 0, 0, 0, 0, 0, 0, 0, -1, 0, 0, 0, 0, 0, 1, 0, 0, 1, 0, -2, 0, 0, 0, 0, 0, 0, 0, 0, 0, 0, 0, 0, 0, 0, 0, 0, 0, -1, 0, 0, -1, 0, -1, 0, 0, 0, 0, 0, 0, 0, 0, 0, 0, 0, 0, 0, 0, 0, 0, 0, 0, 0, 0, 1, -3, 1, 0, 0, 0, 0, 0, 0, 0, 0, 0, 0, 0, 0, 0, 0, 0, 0, 0, 0, 0, -3, 0, 2, -1, 0, 0, 0, 0, 0, 0, 0, 0, 0, 0, 0, 0, 0, 0, 0, 0, 0, 0, -3, 2, 0, -1, 0, 0, 0, 0, 0, 0, 0, 0, 0, 0, -1, -1, 0, 1, -1, 0, 0, 0, 0, 0, 0, 0, 0, 0, 0, 0, 0, 0, 0, 0, 0, 0, 0, 0, 0, 0, 0, 0, 0, 0, -3, 0, 2, -1, 0, 0, 0, 0, 0, 0, 0, 0, 0, 0, 0, 0, 0, 0, 0, 0, 0, 0, -3, 2, 0, -1, 0, 0, 0, 0, 0, 0, 0, 0, 0, 0, 0, 0, 0, 0, 1, 0, 1, -1, 1, 0, 0, 0, 0, 0, 0, 0, 0, 0, 0, 0, 0, 0, 0, 0, 0, 0, 0, 0, 0, 0, 0, -3, 2, -1, 0, 0, 0, 0, 0, 0, 0, 0, 0, 0, 0, 0, 0, 0, 0, 0, 0, 0, -2, -1, 1, -1, 0, 0, 0, 0, 0, 0, 0; 0, 0, 0, 0, 0, 0, 0, 0, 0, 1, 0, 0, 0, 0, 0, 0, 0, 0, 0, 0, 0, 0, 0, 0, 0, 0, 0, 0, 0, 0, 0, 1, 0, 0, 0, 0, 0, 0, 0, 0, 0, 0, 0, 0, 0, 0, 0, 0, 0, 0, 0, 0, 0, 0, 0, 0, -1, 0, 0, 0, 0, 0, 0, 0, 0, 0, 0, 0, 0, 0, 0, 0, 0, 0, 0, 0, 1, 0, 0, 0, 0, 0, 0, 0, 0, 0, 0, 0, 0, 0, 0, 0, 0, 0, 0, 0, 0, 1, 0, 0, 0, 0, 0, 0, 0, 0, 0, 0, 0, 0, 0, 0, 0, 0, 0, 0, 0, 0, 0, 1, 0, 0, 0, 0, 0, 0, 0, 0, 0, 0, 0, 0, 0, 0, 0, 0, 0, 0, 0, 0, 0, 0, 0, 0, 0, 0, 0, 0, 0, 0, 1, 0, 0, 0, 0, 0, 0, 0, 0, 0, 0, 0, 0, 0, 1, 0, 0, 0, 0, 0, 0, 0, 0, 0, 0, 0, 0, 0, 0, 0, 0, 0, 0, 0, 0, 1, 0, 0, 0, 0, 0, 0, 0, 0, 0, 0, 0, 0, 0, 0, 0, 0, 0, 0, 0, 0, 0, 1, 0, 0, 0, 0, 0, 0, 0, 0, 0, 0, 0, 0, 0, 0, 0, 0, 0, 0, 0, 0, 0, 0, 0, 0, -1, 0, 0, 0, 0, 0, 0, 0, 0, 0, 0, 0, 0, 0, 0, -1, 0, 0, 0, 0, 0, 0, 0, 0, 0, 0, 0, 0, 0, 0, 0, 0, 0, 1, -1, 0, 0, 0, 0, 0, 0, 0, 0, 0, 0, 0, 0, 0, 0, 0, 1, 0, 0, 0, 0, 1, 0, 0, 0, 0, 0, -1, 0, 0, 1, 0, 0, 0, 0, 0, 0, 0, 0, 0, 0, 0, 0, 0, -1, 0, 0, 0, 0, 0, 1, 0, 0, 1, 0, -2, 0, 0, 0, 0, 0, 0, 0, 0, 0, 0, 0, 0, 0, 0, 0, 0, 0, -1, 0, 0, -1, 0, -1, 0, 0, 0, 0, 0, 0, 0, 0, 0, 0, 0, 0, 0, 0, 0, 0, 0, 0, 0, 0, 1, -3, 1, 0, 0, 0, 0, 0, 0, 0, 0, 0, 0, 0, 0, 0, 0, 0, 0, 0, 0, 0, -3, 0, 2, -1, 0, 0, 0, 0, 0, 0, 0, 0, 0, 0, -1, 0, -1, 1, -1, 0, 0, 0, 0, 0, 0, 0, 0, 0, 0, 0, 0, 0, 0, 0, 0, 0, 0, 0, 0, 0, 0, 0, 0, 0, 0, -3, 2, 0, -1, 0, 0, 0, 0, 0, 0, 0, 0, 0, 0, 0, 0, 0, 0, 0, 0, 0, -3, 0, 2, -1, 0, 0, 0, 0, 0, 0, 0, 0, 0, 0, 0, 0, 0, 0, 0, 1, 1, -1, 1, 0, 0, 0, 0, 0, 0, 0, 0, 0, 0, 0, 0, 0, 0, 0, 0, 0, 0, 0, 0, 0, 0, -3, 2, 0, -1, 0, 0, 0, 0, 0, 0, 0, 0, 0, 0, 0, 0, 0, 0, 0, 0, 0, -2, -1, 1, -1, 0, 0, 0, 0, 0, 0; 0, 0, 0, 0, 0, 0, 0, 0, 0, 0, 1, 0, 0, 0, 0, 0, 0, 0, 0, 0, 0, 0, 0, 0, 0, 0, 0, 0, 0, 0, 0, 0, 1, 0, 0, 0, 0, 0, 0, 0, 0, 0, 0, 0, 0, 0, 0, 0, 0, 0, 0, 0, 0, 0, 0, 0, 0, 0, -1, 0, 0, 0, 0, 0, 0, 0, 0, 0, 0, 0, 0, 0, 0, 0, 0, 0, 0, 1, 0, 0, 0, 0, 0, 0, 0, 0, 0, 0, 0, 0, 0, 0, 0, 0, 0, 0, 0, 0, 0, 1, 0, 0, 0, 0, 0, 0, 0, 0, 0, 0, 0, 0, 0, 0, 0, 0, 0, 0, 0, 0, 1, 0, 0, 0, 0, 0, 0, 0, 0, 0, 0, 0, 0, 0, 0, 0, 0, 0, 0, 0, 0, 0, 0, 0, 0, 0, 0, 0, 0, 0, 0, 1, 0, 0, 0, 0, 0, 0, 0, 0, 0, 0, 0, 0, 0, 1, 0, 0, 0, 0, 0, 0, 0, 0, 0, 0, 0, 0, 0, 0, 0, 0, 0, 0, 0, 0, 0, 1, 0, 0, 0, 0, 0, 0, 0, 0, 0, 0, 0, 0, 0, 0, 0, 0, 0, 0, 0, 0, 1, 0, 0, 0, 0, 0, 0, 0, 0, 0, 0, 0, 0, 0, 0, 0, 0, 0, 0, 0, 0, 0, 1, 0, 0, 0, 0, 0, 0, 0, 0, 0, 0, 0, 0, 0, 0, 0, 0, 0, 0, 0, 0, 0, 0, 0, 0, 0, 0, 0, 0, 0, 0, 0, 0, 0, 0, 0, 1, -1, 0, 0, 0, 0, 0, 0, 0, 0, 0, 0, -1, 0, 0, 0, 0, 0, 0, 0, 0, 0, 0, 0, 0, 0, 0, -1, 0, 0, 0, 0, 0, 0, 0, 0, 0, 0, 0, 1, 0, 0, 0, 0, 1, 0, 0, 0, 0, 0, -1, 0, 0, 1, 0, 0, 0, 0, 0, 0, 0, 0, 0, 0, 0, 0, 0, -1, 0, 0, 0, 0, 0, 1, 0, 0, 1, 0, -2, 0, 0, 0, 0, 0, 0, 0, 0, 0, 0, 0, 0, 0, 0, 0, 0, 0, -1, 0, 0, -1, 0, -1, 0, 0, 0, 0, 0, 0, 0, 0, 0, 0, 0, 0, 0, 0, 0, 0, 0, 0, 0, 0, 1, -3, 1, 0, 0, 0, 0, 0, 0, 0, 0, 0, 0, 0, 0, -1, -1, 1, -1, 0, 0, 0, 0, 0, 0, 0, 0, 0, 0, 0, 0, 0, 0, 0, 0, 0, 0, 0, 0, 0, 0, 0, 0, 0, 0, -3, 0, 2, -1, 0, 0, 0, 0, 0, 0, 0, 0, 0, 0, 0, 0, 0, 0, 0, 0, 0, 0, -3, 2, 0, -1, 0, 0, 0, 0, 0, 0, 0, 0, 0, 0, 0, 0, 0, 0, 1, 1, -1, 1, 0, 0, 0, 0, 0, 0, 0, 0, 0, 0, 0, 0, 0, 0, 0, 0, 0, 0, 0, 0, 0, 0, -3, 0, 2, -1, 0, 0, 0, 0, 0, 0, 0, 0, 0, 0, 0, 0, 0, 0, 0, 0, 0, -2, -1, 1, 0, -1, 0, 0, 0, 0; 0, 0, 0, 0, 0, 0, 0, 0, 0, 0, 0, 1, 0, 0, 0, 0, 0, 0, 0, 0, 0, 0, 0, 0, 0, 0, 0, 0, 0, 0, 0, 0, 0, 0, 0, 0, 0, 0, 0, 0, 1, 0, 0, 0, 0, 0, 0, 0, 0, 0, 0, 0, 1, 0, 0, 0, 0, 0, 0, 0, 0, 0, 0, 0, 0, 0, -1, 0, 1, 0, 0, 0, 0, 0, 0, 0, 0, 0, 0, 0, 0, 0, 0, 0, 0, 0, 0, 0, 0, -1, 1, 0, 0, 0, 0, 0, 0, 0, 0, 0, 0, 0, 0, 0, 0, 0, 0, 0, 0, 0, 0, 1, 0, -1, 1, 0, 0, 0, 0, 0, 0, 0, 0, 0, 0, 0, 0, 0, 0, 0, 0, 0, 0, 1, -1, 0, 1, 0, 0, 0, 1, 0, 0, 0, -1, 0, 0, 0, 0, -1, 0, 0, 0, 0, 0, -1, 0, 0, 2, 0, 0, 0, 0, 0, 0, 0, 0, 0, 0, 0, 0, 0, 0, 0, 0, 0, 0, 1, 0, -1, 1, 0, 0, 0, 0, 0, 0, 0, 0, 0, 0, 0, 0, 0, 0, 0, 0, 0, 0, 1, -1, 0, 1, 0, 0, 0, 0, 0, 0, 0, 0, 0, 0, 0, 0, 0, 0, 0, 0, 0, 0, 1, -1, 1, 0, 0, 0, 0, 0, 0, 0, 0, 0, 0, 0, 0, 0, 0, 0, 0, 0, 0, 0, 1, -1, 1, 0, 0, 0, 0, 0, 0, 0, 1, 0, 0, 0, 0, 0, -1, 0, 0, 0, 0, 2, 0, 0, 0, 0, 0, 1, 0, 0, 2, 0, -3, 0, 0, 0, 0, 0, 0, 0, 0, 0, 0, 0, 0, 1, -1, 1, 0, 0, 0, 0, 0, 0, 0, 0, 0, 0, 0, 0, 0, 0, 0, 0, 0, 0, 1, 0, -1, 1, 0, 0, 0, 0, 0, 0, 0, 0, 0, 0, 0, 0, 0, 0, 0, 0, 0, 0, 1, -1, 0, 1, 0, 0, 0, 0, 0, 0, 0, 0, 0, 0, 0, 0, 0, 0, 0, 0, 0, 0, 1, -1, 1, 0, 0, 0, 0, 0, 0, 0, 0, 0, 0, 0, 0, 0, 0, 0, 0, 0, 0, 0, 1, -1, 1, 0, 0, 0, 0, 0, 0, 0, 0, 0, 0, 0, 0, 0, 0, 1, 0, 0, 0, 0, -1, 0, 0, 0, 0, 1, 0, 0, 0, 0, 0, -1, 0, 0, 3, 0, -2, 0, 0, 0, 0, 0, 1, 0, -1, 1, 0, 0, 0, 0, 0, 0, 0, 0, 0, 0, 0, 0, 0, 0, 0, 0, 0, 0, 1, -1, 0, 1, 0, 0, 0, 0, 0, 0, 0, 0, 0, 0, 0, 0, 0, 0, 0, 0, 0, -1, -1, 0, 0, 2, 0, 0, 0, 0, 2, 0, 0, 0, 0, 0, 3, 0, 0, -4, 0, 0, 0, 0, 0, 1, -1, 1, 0, 0, 0, 0, 0, 0, 0, 0, 0, 0, 0, 0, 0, 0, 0, 0, 0, 0, 0, 1, 0, 1, 0, 0, 0, 0, 0, 0, -3, 0, 0, 0, 0, 0, -2, 0, 0, 0, 0, 3; 0, 0, 0, 0, 0, 0, 0, 0, 0, 0, 0, 0, 1, 0, 0, 0, 0, 0, 0, 0, 0, 0, 0, 0, 0, 0, 0, 0, 0, 0, 0, 0, 0, 1, 0, 0, 0, 0, 0, 0, 0, 0, 0, 0, 0, 0, 0, 0, 0, 0, 0, 0, 0, 0, 0, 0, 0, 0, 0, -1, 0, 0, 0, 0, 0, 0, 0, 0, 0, 0, 0, 0, 0, 0, 0, 0, 0, 0, 1, 0, 0, 0, 0, 0, 0, 0, 0, 0, 0, 0, 0, 0, 0, 0, 0, 0, 0, 0, 0, 0, 1, 0, 0, 0, 0, 0, 0, 0, 0, 0, 0, 0, 0, 0, 0, 0, 0, 0, 0, 0, 0, 0, 1, 0, 0, 0, 0, 0, 0, 0, 0, 0, 0, 0, 0, 0, 0, 0, 0, 0, 0, 0, 0, 0, 0, 0, 0, 0, 0, 0, 0, 0, 1, 0, 0, 0, 0, 0, 0, 0, 0, 0, 0, 0, 0, 0, 1, 0, 0, 0, 0, 0, 0, 0, 0, 0, 0, 0, 0, 0, 0, 0, 0, 0, 0, 0, 0, 0, 1, 0, 0, 0, 0, 0, 0, 0, 0, 0, 0, 0, 0, 0, 0, 0, 0, 0, 0, 0, 0, 0, 1, 0, 0, 0, 0, 0, 0, 0, 0, 0, 0, 0, 0, 0, 0, 0, 0, 0, 0, 0, 0, 1, 0, 0, 0, 0, 0, 0, 0, 0, 0, 0, 0, 0, 0, 0, 0, 0, 0, 0, 0, 0, 0, 0, 0, 0, 0, 0, 0, 0, 0, 0, 0, 0, 0, 0, 0, 1, -1, 0, 0, 0, 0, 0, 0, 0, 1, 0, 0, 0, 0, 0, 0, 0, 0, 0, 0, 0, 0, 0, 0, 0, 0, 0, 0, 0, 0, 0, 0, 0, 0, -1, 0, 0, 0, 0, 0, 0, 0, 0, 0, 0, 0, 0, 0, 0, -1, 0, 0, 0, 0, 0, 0, 0, 0, 0, 0, 0, 1, 0, 0, 0, 0, 1, 0, 0, 0, 0, 0, -1, 0, 0, 1, 0, 0, 0, 0, 0, 0, 0, 0, 0, 0, 0, 0, 0, -1, 0, 0, 0, 0, 0, 1, 0, 0, 1, 0, -2, 0, 0, 0, 0, 0, 0, 0, 0, 0, 0, 0, 0, 0, 0, 0, 0, 0, -1, 0, 0, -1, 0, -1, 0, 0, 0, 0, 0, 0, 0, 0, 0, 0, 0, 0, 0, -1, -1, 1, -1, 0, 0, 0, 0, 0, 0, 0, 0, 0, 0, 0, 0, 0, 0, 0, 0, 0, 0, 0, 0, 0, 0, 0, 0, 0, 0, 1, -3, 1, 0, 0, 0, 0, 0, 0, 0, 0, 0, 0, 0, 0, 0, 0, 0, 0, 0, 0, 0, -3, 0, 2, -1, 0, 0, 0, 0, 0, 0, 0, 0, 0, 0, 0, 0, 0, 0, 1, 1, -1, 0, 1, 0, 0, 0, 0, 0, 0, 0, 0, 0, 0, 0, 0, 0, 0, 0, 0, 0, 0, 0, 0, 0, 0, -3, 2, 0, -1, 0, 0, 0, 0, 0, 0, 0, 0, 0, 0, 0, 0, 0, 0, 0, 0, -2, -1, 0, 1, -1, 0, 0, 0; 0, 0, 0, 0, 0, 0, 0, 0, 0, 0, 0, 0, 0, 1, 0, 0, 0, 0, 0, 0, 0, 0, 0, 0, 0, 0, 0, 0, 0, 0, 0, 0, 0, 0, 0, 1, 0, 0, 0, 0, 0, 0, 0, 0, 0, 0, 0, 0, 0, 0, 0, 0, 0, 0, 0, 0, 0, 0, 0, 0, -1, 0, 0, 0, 0, 0, 0, 0, 0, 0, 0, 0, 0, 0, 0, 0, 0, 0, 0, 1, 0, 0, 0, 0, 0, 0, 0, 0, 0, 0, 0, 0, 0, 0, 0, 0, 0, 0, 0, 0, 0, 1, 0, 0, 0, 0, 0, 0, 0, 0, 0, 0, 0, 0, 0, 0, 0, 0, 0, 0, 0, 0, 0, 1, 0, 0, 0, 0, 0, 0, 0, 0, 0, 0, 0, 0, 0, 0, 0, 0, 0, 0, 0, 0, 0, 0, 0, 0, 0, 0, 0, 0, 0, 1, 0, 0, 0, 0, 0, 0, 0, 0, 0, 0, 0, 0, 0, 0, 1, 0, 0, 0, 0, 0, 0, 0, 0, 0, 0, 0, 0, 0, 0, 0, 0, 0, 0, 0, 0, 1, 0, 0, 0, 0, 0, 0, 0, 0, 0, 0, 0, 0, 0, 0, 0, 0, 0, 0, 0, 0, 0, 1, 0, 0, 0, 0, 0, 0, 0, 0, 0, 0, 0, 0, 0, 0, 0, 0, 0, 0, 0, 0, 0, 1, 0, 0, 0, 0, 0, 0, 0, 0, 0, 0, 0, 0, 0, 0, 0, 0, 0, 0, 0, 0, 0, 0, 0, 0, 0, 0, 0, 0, 0, 0, 0, 0, 0, 0, 1, -1, 0, 0, 0, 0, 0, 0, 0, 1, 0, 0, 0, 0, 0, 0, 0, 0, 0, 0, 0, 0, 0, 0, 0, 0, 0, 0, 0, 0, 0, 1, 0, 0, 0, 0, 0, 0, 0, 0, 0, 0, 0, 0, 0, 0, 0, 0, 0, 0, 0, 0, 0, 0, 0, 0, -1, 0, 0, 0, 0, 0, 0, 0, 0, 0, 0, 0, 0, 0, 0, -1, 0, 0, 0, 0, 0, 0, 0, 0, 0, 0, 0, 1, 0, 0, 0, 0, 1, 0, 0, 0, 0, 0, -1, 0, 0, 1, 0, 0, 0, 0, 0, 0, 0, 0, 0, 0, 0, 0, 0, -1, 0, 0, 0, 0, 0, 1, 0, 0, 1, 0, -2, 0, 0, 0, 0, 0, 0, 0, 0, 0, 0, 0, 0, 0, 0, -1, -1, 1, 0, -1, 0, 0, 0, 0, 0, 0, 0, 0, 0, 0, 0, 0, 0, 0, 0, 0, 0, 0, 0, 0, 0, -1, 0, 0, -1, 0, -1, 0, 0, 0, 0, 0, 0, 0, 0, 0, 0, 0, 0, 0, 0, 0, 0, 0, 0, 0, 0, 1, -3, 1, 0, 0, 0, 0, 0, 0, 0, 0, 0, 0, 0, 0, 0, 0, 0, 1, 1, 0, -1, 1, 0, 0, 0, 0, 0, 0, 0, 0, 0, 0, 0, 0, 0, 0, 0, 0, 0, 0, 0, 0, 0, 0, -3, 0, 2, -1, 0, 0, 0, 0, 0, 0, 0, 0, 0, 0, 0, 0, 0, 0, 0, 0, -2, 0, -1, 1, 0, -1, 0; 0, 0, 0, 0, 0, 0, 0, 0, 0, 0, 0, 0, 0, 0, 1, 0, 0, 0, 0, 0, 0, 0, 0, 0, 0, 0, 0, 0, 0, 0, 0, 0, 0, 0, 0, 0, 1, 0, 0, 0, 0, 0, 0, 0, 0, 0, 0, 0, 0, 0, 0, 0, 0, 0, 0, 0, 0, 0, 0, 0, 0, -1, 0, 0, 0, 0, 0, 0, 0, 0, 0, 0, 0, 0, 0, 0, 0, 0, 0, 0, 0, 1, 0, 0, 0, 0, 0, 0, 0, 0, 0, 0, 0, 0, 0, 0, 0, 0, 0, 0, 0, 0, 1, 0, 0, 0, 0, 0, 0, 0, 0, 0, 0, 0, 0, 0, 0, 0, 0, 0, 0, 0, 0, 0, 1, 0, 0, 0, 0, 0, 0, 0, 0, 0, 0, 0, 0, 0, 0, 0, 0, 0, 0, 0, 0, 0, 0, 0, 0, 0, 0, 0, 0, 0, 1, 0, 0, 0, 0, 0, 0, 0, 0, 0, 0, 0, 0, 0, 0, 1, 0, 0, 0, 0, 0, 0, 0, 0, 0, 0, 0, 0, 0, 0, 0, 0, 0, 0, 0, 0, 0, 1, 0, 0, 0, 0, 0, 0, 0, 0, 0, 0, 0, 0, 0, 0, 0, 0, 0, 0, 0, 0, 1, 0, 0, 0, 0, 0, 0, 0, 0, 0, 0, 0, 0, 0, 0, 0, 0, 0, 0, 0, 0, 0, 1, 0, 0, 0, 0, 0, 0, 0, 0, 0, 0, 0, 0, 0, 0, 0, 0, 0, 0, 0, 0, 0, 0, 0, 0, 0, 0, 0, 0, 0, 0, 0, 0, 0, 0, 1, 0, -1, 0, 0, 0, 0, 0, 0, 0, 1, 0, 0, 0, 0, 0, 0, 0, 0, 0, 0, 0, 0, 0, 0, 0, 0, 0, 0, 0, 0, 1, 0, 0, 0, 0, 0, 0, 0, 0, 0, 0, 0, 0, 0, 0, 0, 0, 0, 0, 0, 0, 0, 1, 0, 0, 0, 0, 0, 0, 0, 0, 0, 0, 0, 0, 0, 0, 0, 0, 0, 0, 0, 0, 0, 0, 0, 0, -1, 0, 0, 0, 0, 0, 0, 0, 0, 0, 0, 0, 0, 0, 0, -1, 0, 0, 0, 0, 0, 0, 0, 0, 0, 0, 0, 1, 0, 0, 0, 0, 1, 0, 0, 0, 0, 0, -1, 0, 0, 1, 0, 0, 0, 0, 0, 0, 0, 0, 0, 0, 0, 0, 0, 0, 0, 0, 0, -1, -1, 0, 1, -1, 0, 0, 0, 0, 0, 0, 0, 0, 0, 0, 0, 0, 0, 0, -1, 0, 0, 0, 0, 0, 1, 0, 0, 1, 0, -2, 0, 0, 0, 0, 0, 0, 0, 0, 0, 0, 0, 0, 0, 0, 0, 0, 0, -1, 0, 0, -1, 0, -1, 0, 0, 0, 0, 0, 0, 0, 0, 0, 0, 0, 0, 0, 0, 0, 0, 1, 0, 1, -1, 0, 1, 0, 0, 0, 0, 0, 0, 0, 0, 0, 0, 0, 0, 0, 0, 0, 0, 0, 0, 0, 0, 0, 1, -3, 1, 0, 0, 0, 0, 0, 0, 0, 0, 0, 0, 0, 0, 0, 0, 0, 0, 0, 0, -2, -1, 0, 1, -1; 0, 0, 0, 0, 0, 0, 0, 0, 0, 0, 0, 0, 0, 0, 0, 1, 0, 0, 0, 0, 0, 0, 0, 0, 0, 0, 0, 0, 0, 0, 0, 0, 0, 0, 0, 0, 0, 1, 0, 0, 0, 0, 0, 0, 0, 0, 0, 0, 0, 0, 0, 0, 0, 0, 0, 0, 0, 0, 0, 0, 0, 0, -1, 0, 0, 0, 0, 0, 0, 0, 0, 0, 0, 0, 0, 0, 0, 0, 0, 0, 0, 0, 1, 0, 0, 0, 0, 0, 0, 0, 0, 0, 0, 0, 0, 0, 0, 0, 0, 0, 0, 0, 0, 0, 1, 0, 0, 0, 0, 0, 0, 0, 0, 0, 0, 0, 0, 0, 0, 0, 0, 0, 0, 0, 0, 1, 0, 0, 0, 0, 0, 0, 0, 0, 0, 0, 0, 0, 0, 0, 0, 0, 0, 0, 0, 0, 0, 0, 0, 0, 0, 0, 0, 0, 0, 0, 1, 0, 0, 0, 0, 0, 0, 0, 0, 0, 0, 0, 0, 0, 1, 0, 0, 0, 0, 0, 0, 0, 0, 0, 0, 0, 0, 0, 0, 0, 0, 0, 0, 0, 0, 0, 1, 0, 0, 0, 0, 0, 0, 0, 0, 0, 0, 0, 0, 0, 0, 0, 0, 0, 0, 0, 0, 0, 1, 0, 0, 0, 0, 0, 0, 0, 0, 0, 0, 0, 0, 0, 0, 0, 0, 0, 0, 0, 0, 1, 0, 0, 0, 0, 0, 0, 0, 0, 0, 0, 0, 0, 0, 0, 0, 0, 0, 0, 0, 0, 0, 0, 0, 0, 0, 0, 0, 0, 0, 0, 0, 0, 0, 0, 0, 1, -1, 0, 0, 0, 0, 0, 0, 0, 1, 0, 0, 0, 0, 0, 0, 0, 0, 0, 0, 0, 0, 0, 0, 0, 0, 0, 0, 0, 0, 0, 1, 0, 0, 0, 0, 0, 0, 0, 0, 0, 0, 0, 0, 0, 0, 0, 0, 0, 0, 0, 0, 1, 0, 0, 0, 0, 0, 0, 0, 0, 0, 0, 0, 0, 0, 0, 0, 0, 0, 0, 0, 0, 0, 1, 0, 0, 0, 0, 0, 0, 0, 0, 0, 0, 0, 0, 0, 0, 0, 0, 0, 0, 0, 0, 0, 0, 0, 0, -1, 0, 0, 0, 0, 0, 0, 0, 0, 0, 0, 0, 0, 0, 0, -1, 0, 0, 0, 0, 0, 0, 0, 0, 0, 0, 0, 0, 0, 0, 0, 0, 0, 0, 0, 0, 0, -1, 0, -1, 1, 0, -1, 0, 0, 0, 0, 0, 0, 0, 1, 0, 0, 0, 0, 1, 0, 0, 0, 0, 0, -1, 0, 0, 1, 0, 0, 0, 0, 0, 0, 0, 0, 0, 0, 0, 0, 0, -1, 0, 0, 0, 0, 0, 1, 0, 0, 1, 0, -2, 0, 0, 0, 0, 0, 0, 0, 0, 0, 0, 0, 0, 0, 0, 0, 0, 0, 0, 1, 1, 0, -1, 1, 0, 0, 0, 0, 0, 0, 0, 0, 0, 0, 0, 0, 0, 0, 0, 0, 0, -1, 0, 0, -1, 0, -1, 0, 0, 0, 0, 0, 0, 0, 0, 0, 0, 0, 0, 0, 0, 0, 0, 0, 0, 0, -2, 1, -1, 0; 0, 0, 0, 0, 0, 0, 0, 0, 0, 0, 0, 0, 0, 0, 0, 0, 1, 0, 0, 0, 0, 0, 0, 0, 0, 0, 0, 0, 0, 0, 0, 0, 0, 0, 0, 0, 0, 0, 1, 0, 0, 0, 0, 0, 0, 0, 0, 0, 0, 0, 0, 0, 0, 0, 0, 0, 0, 0, 0, 0, 0, 0, 0, 0, -1, 0, 0, 0, 0, 0, 0, 0, 0, 0, 0, 0, 0, 0, 0, 0, 0, 0, 0, 1, 0, 0, 0, 0, 0, 0, 0, 0, 0, 0, 0, 0, 0, 0, 0, 0, 0, 0, 0, 0, 0, 1, 0, 0, 0, 0, 0, 0, 0, 0, 0, 0, 0, 0, 0, 0, 0, 0, 0, 0, 0, 0, 0, 1, 0, 0, 0, 0, 0, 0, 0, 0, 0, 0, 0, 0, 0, 0, 0, 0, 0, 0, 0, 0, 0, 0, 0, 0, 0, 0, 0, 0, 0, 1, 0, 0, 0, 0, 0, 0, 0, 0, 0, 0, 0, 0, 0, 1, 0, 0, 0, 0, 0, 0, 0, 0, 0, 0, 0, 0, 0, 0, 0, 0, 0, 0, 0, 0, 0, 1, 0, 0, 0, 0, 0, 0, 0, 0, 0, 0, 0, 0, 0, 0, 0, 0, 0, 0, 0, 0, 0, 1, 0, 0, 0, 0, 0, 0, 0, 0, 0, 0, 0, 0, 0, 0, 0, 0, 0, 0, 0, 0, 0, 1, 0, 0, 0, 0, 0, 0, 0, 0, 0, 0, 0, 0, 0, 0, 0, 0, 0, 0, 0, 0, 0, 0, 0, 0, 0, 0, 0, 0, 0, 0, 0, 0, 0, 0, 1, 0, -1, 0, 0, 0, 0, 0, 0, 1, 0, 0, 0, 0, 0, 0, 0, 0, 0, 0, 0, 0, 0, 0, 0, 0, 0, 0, 0, 0, 0, 1, 0, 0, 0, 0, 0, 0, 0, 0, 0, 0, 0, 0, 0, 0, 0, 0, 0, 0, 0, 0, 0, 1, 0, 0, 0, 0, 0, 0, 0, 0, 0, 0, 0, 0, 0, 0, 0, 0, 0, 0, 0, 0, 1, 0, 0, 0, 0, 0, 0, 0, 0, 0, 0, 0, 0, 0, 0, 0, 0, 0, 0, 0, 0, 0, 1, 0, 0, 0, 0, 0, 0, 0, 0, 0, 0, 0, 0, 0, 0, 0, 0, 0, 0, 0, 0, 0, 0, 0, 0, 0, 0, 0, 0, 0, 0, 0, 0, 0, 0, 0, 0, 0, 0, 0, 0, -1, -1, 0, 1, -1, 0, 0, -1, 0, 0, 0, 0, 0, 0, 0, 0, 0, 0, 0, 0, 0, 0, -1, 0, 0, 0, 0, 0, 0, 0, 0, 0, 0, 0, 1, 0, 0, 0, 0, 1, 0, 0, 0, 0, 0, -1, 0, 0, 1, 0, 0, 0, 0, 0, 0, 0, 0, 0, 0, 0, 0, 0, 0, 0, 0, 0, 0, 0, 0, 0, 1, -1, 1, 0, 0, 0, 0, 0, 0, 0, 0, 0, 0, 0, 0, -1, 0, 0, 0, 0, 0, 1, 0, 0, 1, 0, -2, 0, 0, 0, 0, 0, 0, 0, 0, 0, 0, 0, 0, 0, 0, 0, 0, 0, -1, 0, 0, 0, -2, 0; 0, 0, 0, 0, 0, 0, 0, 0, 0, 0, 0, 0, 0, 0, 0, 0, 0, 1, 0, 0, 0, 0, 0, 0, 0, 0, 0, 0, 0, 0, 0, 0, 0, 0, 0, 0, 0, 0, 0, 0, 0, 0, 0, -1, 1, 0, 0, 0, 0, 0, 0, 0, 0, 0, 0, 0, 0, -1, 0, 0, 0, 0, 0, 0, 0, 0, 0, 0, 0, 0, 0, 0, 0, 0, 0, 0, 0, 0, 0, 0, 0, 0, 0, 0, 0, 0, 0, 0, 1, 0, -1, 1, 0, 0, 0, 0, 0, 0, 0, 0, 0, 0, 0, 0, 0, 0, 0, 0, 0, 0, 1, -1, 0, 1, 0, 0, 0, 0, 0, 0, 0, 0, 0, 0, 0, 0, 0, 0, 0, 0, 0, 1, 0, -1, 1, 0, 0, 0, 0, 0, 0, 0, 0, 0, -1, 0, 0, 0, 0, 0, 0, 0, 0, 0, 0, 0, 0, 0, 1, 0, -1, 0, 0, 0, 0, 0, 0, 0, 0, 0, 0, 0, 0, 0, 0, 0, 1, -1, 0, 1, 0, 0, 0, 0, 0, 0, 0, 0, 0, 0, 0, 0, 0, 0, 0, 0, 0, 0, 1, -1, 1, 0, 0, 0, 0, 0, 0, 0, 0, 0, 0, 0, 0, 0, 0, 0, 0, 0, 0, 0, 1, -1, 1, 0, 0, 0, 0, 0, 0, 0, 0, 0, 0, 0, 0, 0, 0, 0, 0, 0, 0, 0, 1, -1, 1, 0, 0, 0, 0, 0, 0, 0, 0, 0, 0, -1, 0, 0, 0, 0, 0, 0, 0, 0, 1, 0, 0, 0, 0, 0, 1, 0, 0, -1, 0, -1, 0, 0, 0, 0, 0, 0, 0, 0, 0, 0, 1, 0, -1, 1, 0, 0, 0, 0, 0, 0, 0, 0, 0, 0, 0, 0, 0, 0, 0, 0, 0, 0, 1, -1, 0, 1, 0, 0, 0, 0, 0, 0, 0, 0, 0, 0, 0, 0, 0, 0, 0, 0, 0, 0, 1, -1, 1, 0, 0, 0, 0, 0, 0, 0, 0, 0, 0, 0, 0, 0, 0, 0, 0, 0, 0, 0, 1, -1, 1, 0, 0, 0, 0, 0, 0, 0, 0, 0, 0, 0, 0, 0, 0, 0, 0, 0, 0, 1, 0, -1, 1, 0, 0, 0, 0, 0, 0, 0, 0, 0, 0, 0, 0, 0, 0, 1, 0, 0, 0, 0, 0, 0, 0, 0, 0, 0, 1, 0, 0, 0, 0, 0, 1, 0, 0, 1, 0, -2, 0, 0, 0, 0, 1, -1, 0, 1, 0, 0, 0, 0, 0, 0, 0, 0, 0, 0, 0, 0, 0, 0, 0, 0, 0, 0, 1, -1, 1, 0, 0, 0, 0, 0, 0, 0, 0, 0, 0, 0, 0, 0, 0, 0, 0, 0, 0, -1, 0, 0, 0, 0, 1, 0, 0, 0, 0, -1, 0, 0, 0, 0, 0, 1, 0, 0, -3, 0, 2, 0, 1, 0, -1, 1, 0, 0, 0, 0, 0, 0, 0, 0, 0, 0, 0, 0, 0, 0, 0, 0, 0, 0, 0, 0, 0, 1, 0, 0, -1, 0, 0, 0, 0, -1, 0, 0, 0, 0, 0, -2, 0, 0, 2, 0, 0; 0, 0, 0, 0, 0, 0, 0, 0, 0, 0, 0, 0, 0, 0, 0, 0, 0, 0, 1, 0, 0, 0, 0, 0, 0, 0, 0, 0, 0, 0, 0, 0, 0, 0, 0, 0, 0, 0, 0, 1, 0, 0, 0, 0, 0, 0, 0, 0, 0, 0, 0, 0, 0, 0, 0, 0, 0, 0, 0, 0, 0, 0, 0, 0, 0, -1, 0, 0, 0, 0, 0, 0, 0, 0, 0, 0, 0, 0, 0, 0, 0, 0, 0, 0, 1, 0, 0, 0, 0, 0, 0, 0, 0, 0, 0, 0, 0, 0, 0, 0, 0, 0, 0, 0, 0, 0, 1, 0, 0, 0, 0, 0, 0, 0, 0, 0, 0, 0, 0, 0, 0, 0, 0, 0, 0, 0, 0, 0, 1, 0, 0, 0, 0, 0, 0, 0, 0, 0, 0, 0, 0, 0, 0, 0, 0, 0, 0, 0, 0, 0, 0, 0, 0, 0, 0, 0, 0, 0, 0, 1, 0, 0, 0, 0, 0, 0, 0, 0, 0, 0, 0, 0, 0, 1, 0, 0, 0, 0, 0, 0, 0, 0, 0, 0, 0, 0, 0, 0, 0, 0, 0, 0, 0, 0, 1, 0, 0, 0, 0, 0, 0, 0, 0, 0, 0, 0, 0, 0, 0, 0, 0, 0, 0, 0, 0, 0, 1, 0, 0, 0, 0, 0, 0, 0, 0, 0, 0, 0, 0, 0, 0, 0, 0, 0, 0, 0, 0, 0, 1, 0, 0, 0, 0, 0, 0, 0, 0, 0, 0, 0, 0, 0, 0, 0, 0, 0, 0, 0, 0, 0, 0, 0, 0, 0, 0, 0, 0, 0, 0, 0, 0, 0, 0, 0, 1, -1, 0, 0, 0, 0, 0, 0, 0, 1, 0, 0, 0, 0, 0, 0, 0, 0, 0, 0, 0, 0, 0, 0, 0, 0, 0, 0, 0, 0, 1, 0, 0, 0, 0, 0, 0, 0, 0, 0, 0, 0, 0, 0, 0, 0, 0, 0, 0, 0, 0, 0, 1, 0, 0, 0, 0, 0, 0, 0, 0, 0, 0, 0, 0, 0, 0, 0, 0, 0, 0, 0, 0, 0, 1, 0, 0, 0, 0, 0, 0, 0, 0, 0, 0, 0, 0, 0, 0, 0, 0, 0, 0, 0, 0, 1, 0, 0, 0, 0, 0, 0, 0, 0, 0, 0, 0, 0, 0, 0, 0, 0, 0, 0, 0, 0, 0, 0, 0, 0, 0, 0, 0, 0, 0, 0, 0, 0, 0, 0, 0, 0, 0, 0, 0, 0, -1, 1, -1, 0, 1, 0, 0, 0, 0, 0, 0, 0, 0, 0, 0, 0, 0, 0, 0, 0, 0, 0, 0, 0, 0, 0, 0, 0, 0, -1, 0, 0, 0, 0, 0, 0, 0, 0, 0, 0, 0, 0, 0, 0, -1, 0, 0, 0, 0, 0, 0, 0, 0, 0, 0, 0, 0, 0, 0, 0, 0, 0, 0, 0, 0, 0, 0, 1, 0, 0, 0, 1, 0, 0, 0, 0, 0, 0, 0, 1, 0, 0, 0, 0, 1, 0, 0, 0, 0, 0, -1, 0, 0, 1, 0, 0, 0, 0, 0, 0, 0, 0, 0, 0, 0, 0, 0, -1, 0, 0, 0, 0, 0, 0, 0, 0, 0, 0, -2; 0, 0, 0, 0, 0, 0, 0, 0, 0, 0, 0, 0, 0, 0, 0, 0, 0, 0, 0, 1, 0, 0, 0, 0, 0, 0, 0, 0, 0, 0, 0, 0, 0, 0, 0, 0, 0, 0, 0, 0, 0, 1, 0, 0, 0, 0, 0, 0, 0, 0, 0, 0, 0, 0, 0, 0, 0, 0, 0, 0, 0, 0, 0, 0, 0, 0, 0, -1, 0, 0, 0, 0, 0, 0, 0, 0, 0, 0, 0, 0, 0, 0, 0, 0, 0, 1, 0, 0, 0, 0, 0, 0, 0, 0, 0, 0, 0, 0, 0, 0, 0, 0, 0, 0, 0, 0, 0, 1, 0, 0, 0, 0, 0, 0, 0, 0, 0, 0, 0, 0, 0, 0, 0, 0, 0, 0, 0, 0, 0, 1, 0, 0, 0, 0, 0, 0, 0, 0, 0, 0, 0, 0, 0, 0, 0, 0, 0, 0, 0, 0, 0, 0, 0, 0, 0, 0, 0, 0, 0, 0, 1, 0, 0, 0, 0, 0, 0, 0, 0, 0, 0, 0, 0, 0, 1, 0, 0, 0, 0, 0, 0, 0, 0, 0, 0, 0, 0, 0, 0, 0, 0, 0, 0, 0, 0, 0, 1, 0, 0, 0, 0, 0, 0, 0, 0, 0, 0, 0, 0, 0, 0, 0, 0, 0, 0, 0, 0, 1, 0, 0, 0, 0, 0, 0, 0, 0, 0, 0, 0, 0, 0, 0, 0, 0, 0, 0, 0, 0, 0, 1, 0, 0, 0, 0, 0, 0, 0, 0, 0, 0, 0, 0, 0, 0, 0, 0, 0, 0, 0, 0, 0, 0, 0, 0, 0, 0, 0, 0, 0, 0, 0, 0, 0, 1, 0, 0, 0, 0, 0, 0, 0, 0, 0, 0, 1, 0, 0, 0, 0, 0, 0, 0, 0, 0, 0, 0, 0, 0, 0, 0, 0, 0, 0, 0, 0, 0, 1, 0, 0, 0, 0, 0, 0, 0, 0, 0, 0, 0, 0, 0, 0, 0, 0, 0, 0, 0, 0, 1, 0, 0, 0, 0, 0, 0, 0, 0, 0, 0, 0, 0, 0, 0, 0, 0, 0, 0, 0, 0, 0, 1, 0, 0, 0, 0, 0, 0, 0, 0, 0, 0, 0, 0, 0, 0, 0, 0, 0, 0, 0, 0, 0, 1, 0, 0, 0, 0, 0, 0, 0, 0, 0, 0, 0, 0, 0, 0, 0, 0, 0, 0, 0, 0, 0, 0, 0, 0, 0, 0, 0, 0, 0, 0, 0, 0, 0, 0, 0, 0, -1, 0, 0, 0, -1, 0, 0, 1, 0, 0, 0, 0, 0, 0, 0, 0, 0, 0, 0, 0, 0, 0, 0, 0, 0, 0, 0, 0, 0, 1, 0, 0, 0, 0, 0, 0, 0, 0, 0, 0, 0, 0, 0, 0, 0, 0, 0, 0, 0, 0, 0, 0, 0, 0, 0, 0, 0, 0, 0, 0, 0, 0, 0, 1, 0, 0, 0, 0, 0, 0, 0, 0, 0, 0, 1, 0, 0, -1, 0, 0, 0, 0, 0, 0, 0, 0, 0, 0, 0, 0, 0, 0, -1, 0, 0, 0, 0, 0, 0, 0, 0, 0, 0, 0, 1, 0, 0, 0, 0, 0, 0, 0, 0, 0, 0, 0, 0, 0, 1, 0, -1; 0, 0, 0, 0, 0, 0, 0, 0, 0, 0, 0, 0, 0, 0, 0, 0, 0, 0, 0, 0, 1, 0, 0, 0, 0, 0, 0, 0, 0, 0, 0, 0, 0, 0, 0, 0, 0, 0, 0, 0, 0, 0, 0, 0, 1, -1, 0, 0, 0, 0, 0, 0, 0, 0, 0, 0, 0, 0, 0, 0, 0, 0, 0, 1, 0, 0, 0, 0, -1, 0, 0, 0, 0, 0, 0, 0, 0, 0, 0, 0, 0, 0, 0, 0, 0, 0, 0, 0, 1, 0, -1, 0, 0, 0, 0, 0, 0, 0, 0, 0, 0, 0, 0, 0, 0, 0, 0, 0, 0, 0, 1, -1, 0, 0, 0, 0, 0, 0, 0, 0, 0, 0, 0, 0, 0, 0, 0, 0, 0, 0, 0, 1, 0, -1, 0, 0, 0, 0, 0, 0, 0, 0, 0, 0, 0, 0, 0, 0, 0, -1, 0, 0, 0, 0, 0, 0, 0, 0, -1, 0, 1, 0, 0, 0, 0, 0, 0, 0, 0, 0, 0, 0, 0, 0, 0, 0, 1, -1, 0, 0, 0, 0, 0, 0, 0, 0, 0, 0, 0, 0, 0, 0, 0, 0, 0, 0, 0, 0, 1, -1, 0, 0, 0, 0, 0, 0, 0, 0, 0, 0, 0, 0, 0, 0, 0, 0, 0, 0, 0, 0, 1, -1, 0, 0, 0, 0, 0, 0, 0, 0, 0, 0, 0, 0, 0, 0, 0, 0, 0, 0, 0, 0, 1, -1, 0, 0, 0, 0, 0, 0, 0, 0, 0, 0, 0, 0, 0, 0, 0, -1, 0, 0, 0, 0, -1, 0, 0, 0, 0, 0, -1, 0, 0, 1, 0, 0, 0, 0, 0, 0, 0, 0, 0, 0, 0, 0, 1, 0, -1, 0, 0, 0, 0, 0, 0, 0, 0, 0, 0, 0, 0, 0, 0, 0, 0, 0, 0, 0, 1, -1, 0, 0, 0, 0, 0, 0, 0, 0, 0, 0, 0, 0, 0, 0, 0, 0, 0, 0, 0, 0, 1, -1, 0, 0, 0, 0, 0, 0, 0, 0, 0, 0, 0, 0, 0, 0, 0, 0, 0, 0, 0, 0, 1, -1, 0, 0, 0, 0, 0, 0, 0, 0, 0, 0, 0, 0, 0, 0, 0, 0, 0, 0, 0, 1, 0, -1, 0, 0, 0, 0, 0, 0, 0, 0, 0, 0, 0, 0, 0, 0, 0, 0, 0, 1, 0, 0, 0, 0, 0, 0, 0, 0, -1, 0, 0, 0, 0, 0, 0, 0, 0, 1, 0, 0, 0, 0, 0, 0, 1, -1, 0, 0, 0, 0, 0, 0, 0, 0, 0, 0, 0, 0, 0, 0, 0, 0, 0, 0, 0, 0, 1, -1, 0, 0, 0, 0, 0, 0, 0, 0, 0, 0, 0, 0, 0, 0, 0, 0, 0, 0, 1, 0, 0, 0, 0, 0, -1, 0, 0, 0, 0, 1, 0, 0, 0, 0, 0, 1, 0, 0, 1, 0, -2, 0, 1, 0, -1, 0, 0, 0, 0, 0, 0, 0, 0, 0, 0, 0, 0, 0, 0, 0, 0, 0, 0, 0, 0, -1, -1, 0, 0, 0, 1, 0, 0, 0, 0, 0, 0, 0, 0, 0, 0, 0, 0, 0, -2, 0, 1; 0, 0, 0, 0, 0, 0, 0, 0, 0, 0, 0, 0, 0, 0, 0, 0, 0, 0, 0, 0, 0, 1, 0, 0, 0, 0, 0, 0, 0, 0, 0, 0, 0, 0, 0, 0, 0, 0, 0, 0, 0, 0, 1, 0, 0, 0, 0, 0, 0, 0, 0, 0, 0, 0, 0, 0, 0, 0, 0, 0, 0, 0, 0, 0, 0, 0, 0, 0, -1, 0, 0, 0, 0, 0, 0, 0, 0, 0, 0, 0, 0, 0, 0, 0, 0, 0, 0, 1, 0, 0, 0, 0, 0, 0, 0, 0, 0, 0, 0, 0, 0, 0, 0, 0, 0, 0, 0, 0, 1, 0, 0, 0, 0, 0, 0, 0, 0, 0, 0, 0, 0, 0, 0, 0, 0, 0, 0, 0, 0, 0, 1, 0, 0, 0, 0, 0, 0, 0, 0, 0, 0, 0, 0, 0, 0, 0, 0, 0, 0, 0, 0, 0, 0, 0, 0, 0, 0, 0, -1, 0, 1, 0, 0, 0, 0, 0, 0, 0, 0, 0, 0, 0, 0, 0, 0, 1, 0, 0, 0, 0, 0, 0, 0, 0, 0, 0, 0, 0, 0, 0, 0, 0, 0, 0, 0, 0, 0, 1, 0, 0, 0, 0, 0, 0, 0, 0, 0, 0, 0, 0, 0, 0, 0, 0, 0, 0, 0, 0, 0, 1, 0, 0, 0, 0, 0, 0, 0, 0, 0, 0, 0, 0, 0, 0, 0, 0, 0, 0, 0, 0, 1, 0, 0, 0, 0, 0, 0, 0, 0, 0, 0, 0, 0, 0, 0, 0, 0, 0, 0, 0, 0, 0, 0, 0, 0, 0, 0, 0, 0, 0, -1, 0, 0, 0, 0, 1, 0, 0, 0, 0, 0, 0, 0, 0, 0, 1, 0, 0, 0, 0, 0, 0, 0, 0, 0, 0, 0, 0, 0, 0, 0, 0, 0, 0, 0, 0, 0, 1, 0, 0, 0, 0, 0, 0, 0, 0, 0, 0, 0, 0, 0, 0, 0, 0, 0, 0, 0, 0, 0, 1, 0, 0, 0, 0, 0, 0, 0, 0, 0, 0, 0, 0, 0, 0, 0, 0, 0, 0, 0, 0, 1, 0, 0, 0, 0, 0, 0, 0, 0, 0, 0, 0, 0, 0, 0, 0, 0, 0, 0, 0, 0, 0, 1, 0, 0, 0, 0, 0, 0, 0, 0, 0, 0, 0, 0, 0, 0, 0, 0, 0, 0, 0, 0, 0, 0, 0, 0, 0, 0, 0, 0, 0, -1, 0, 0, 0, 0, 0, 0, 0, 0, 0, 0, -1, 0, 0, 0, 1, 0, 0, 0, 0, 0, 0, 0, 0, 0, 0, 0, 0, 0, 0, 0, 0, 0, 0, 0, 0, 1, 0, 0, 0, 0, 0, 0, 0, 0, 0, 0, 0, 0, 0, 0, 0, 0, 0, 0, 0, 0, 0, 0, 0, 0, 0, 0, 0, -1, 0, 0, 0, 0, 0, 0, 0, 0, 0, 0, 0, 0, 0, 0, 0, 0, 1, 0, 0, 0, 0, 0, 0, 0, 0, 0, 0, 0, 0, 0, 0, 0, 0, 0, 0, 0, 0, 0, 0, 0, 0, -1, 0, 0, 0, 1, 0, 0, 0, 0, 1, 0, 0, 0, 0, 0, -1, 0, 0, 0, 0, 0; 0, 0, 0, 0, 0, 0, 0, 0, 0, 0, 0, 0, 0, 0, 0, 0, 0, 0, 0, 0, 0, 0, 1, 0, 0, 0, 0, 0, 0, 0, 0, 0, 0, 0, 0, 0, 0, 0, 0, 0, 0, 0, 0, 0, 1, 0, 0, 0, 0, 0, 0, 0, 0, 0, 0, 0, 0, 0, 0, 0, 0, 0, 0, 0, 0, 0, 1, 0, -1, 0, 0, 0, 0, 0, 0, 0, 0, 0, 0, 0, 0, 0, 0, 0, 0, 0, 0, 0, 1, 0, 0, 0, 0, 0, 0, 0, 0, 0, 0, 0, 0, 0, 0, 0, 0, 0, 0, 0, 0, 0, 1, 0, 0, 0, 0, 0, 0, 0, 0, 0, 0, 0, 0, 0, 0, 0, 0, 0, 0, 0, 0, 1, 0, 0, 0, 0, 0, 0, 0, 0, 0, 0, 0, 0, 0, 0, 0, 0, 0, 0, 0, 0, 0, 0, 0, 1, 0, 0, -1, 0, 0, 0, 0, 0, 0, 0, 0, 0, 0, 0, 0, 0, 0, 0, 0, 0, 1, 0, 0, 0, 0, 0, 0, 0, 0, 0, 0, 0, 0, 0, 0, 0, 0, 0, 0, 0, 0, 0, 1, 0, 0, 0, 0, 0, 0, 0, 0, 0, 0, 0, 0, 0, 0, 0, 0, 0, 0, 0, 0, 0, 1, 0, 0, 0, 0, 0, 0, 0, 0, 0, 0, 0, 0, 0, 0, 0, 0, 0, 0, 0, 0, 0, 1, 0, 0, 0, 0, 0, 0, 0, 0, 0, 0, 0, 0, 0, 0, 0, 0, 0, 0, 0, 0, 0, -1, 0, 0, 0, 0, 0, 0, 0, 0, -1, 0, 1, 0, 0, 0, 0, 0, 0, 0, 0, 0, 0, 1, 0, 0, 0, 0, 0, 0, 0, 0, 0, 0, 0, 0, 0, 0, 0, 0, 0, 0, 0, 0, 0, 1, 0, 0, 0, 0, 0, 0, 0, 0, 0, 0, 0, 0, 0, 0, 0, 0, 0, 0, 0, 0, 0, 1, 0, 0, 0, 0, 0, 0, 0, 0, 0, 0, 0, 0, 0, 0, 0, 0, 0, 0, 0, 0, 0, 1, 0, 0, 0, 0, 0, 0, 0, 0, 0, 0, 0, 0, 0, 0, 0, 0, 0, 0, 0, 0, 1, 0, 0, 0, 0, 0, 0, 0, 0, 0, 0, 0, 0, 0, 0, 0, 0, 0, 0, 0, 0, 0, 0, 0, 1, 0, 0, 0, 0, 0, 0, 0, 0, 0, 0, 0, 0, 0, 0, 0, 0, 0, 0, 0, 0, 1, 0, 0, 0, 0, 0, 0, 0, 0, 0, 0, 0, 0, 0, 0, 0, 0, 0, 0, 0, 0, 0, 1, 0, 0, 0, 0, 0, 0, 0, 0, 0, 0, 0, 0, 0, 0, 0, 0, 0, 0, 0, 0, 0, 1, 0, 0, 0, -1, 0, 0, 0, 0, -1, 0, 0, 0, 0, 0, 0, 0, 0, 1, 0, 0, 0, 1, 0, 0, 0, 0, 0, 0, 0, 0, 0, 0, 0, 0, 0, 0, 0, 0, 0, 0, 0, 0, 0, 1, 0, -1, 0, 0, 0, 0, 0, 0, 0, 0, 1, 0, 0, 0, 0, 0, 0, 0, 0, 0, 0, -1]]'
p1
tp2
Rp3
.