csage.libs.pari.gen_py
pari
p0
(S'[y^8 - 2*y^5 + y + 1, [0, 4], 73457785, 1, [[1, -0.857294458249845 + 0.162189728988259*I, 1.12615302351905 + 0.213054513447738*I, 1.22282840668064 + 0.479863968987099*I, -0.708648279956610 + 0.278088711693358*I, 0.274854722994733 + 0.800929370768088*I, -0.0482369837468178 + 1.11129206459117*I, 0.138886859934010 + 0.960528071792146*I; 1, 1.22930414972420 + 0.580603745855341*I, -0.665103716031027 + 0.314130322423916*I, 0.343685093612127 - 0.417858489524343*I, -1.17408798282789 - 1.42747718825077*I, -1.09732421086404 + 0.385881143426424*I, -0.215890262405571 + 0.591147834171806*I, 0.608617442334638 - 0.601353790601508*I; 1, -0.256794550491659 + 1.08145563809537*I, 0.207848387991199 + 0.875325471789628*I, -0.722993729173195 + 0.363869976558221*I, 1.10360285600605 + 0.555423828922742*I, -1.46877774003730 - 0.557225039023448*I, 1.26467455748326 - 0.131573912884366*I, 0.182470184592084 - 1.40147689436161*I; 1, 0.384784859017303 + 0.653599873399168*I, -0.668897695479219 + 1.13619712116207*I, -0.843519771119571 - 1.51999927191087*I, 0.279133406778443 - 0.502990670279252*I, 1.29124722790661 + 0.0583192745219234*I, -1.00054731133087 - 2.01188830737157*I, -0.929974486860733 + 1.42810175472626*I], [1, -0.695104729261586, 1.33920753696678, 1.70269237566774, -0.430559568263252, 1.07578409376282, 1.06305508084435, 1.09941493172616; 1, -1.01948418723810, 0.913098510071309, 0.742964437693539, -0.986736991649967, -0.526074647773356, -1.15952904833799, -0.821641211858136; 1, 1.80990789557954, -0.350973393607111, -0.0741733959122155, -2.60156517107866, -0.711443067437621, 0.375257571766235, 0.00726365173313021; 1, 0.648700403868859, -0.979234038454943, 0.761543583136470, 0.253389205422887, -1.48320535429047, -0.807038096577378, 1.20997123293615; 1, 0.824661087603712, 1.08317385978083, -0.359123752614975, 1.65902668492879, -2.02600277906075, 1.13310064459889, -1.21900670976953; 1, -1.33825018858703, -0.667477083798429, -1.08686370573142, 0.548179027083311, -0.911552701013852, 1.39624847036763, 1.58394707895369; 1, 1.03838473241647, 0.467299425682853, -2.36351904303044, -0.223857263500808, 1.34956650242854, -3.01243561870244, 0.498127267865531; 1, -0.268815014381866, -1.80509481664129, 0.676479500791296, 0.782124077057695, 1.23292795338469, 1.01134099604070, -2.35807624158700], [1, -1, 1, 2, 0, 1, 1, 1; 1, -1, 1, 1, -1, -1, -1, -1; 1, 2, 0, 0, -3, -1, 0, 0; 1, 1, -1, 1, 0, -1, -1, 1; 1, 1, 1, 0, 2, -2, 1, -1; 1, -1, -1, -1, 1, -1, 1, 2; 1, 1, 0, -2, 0, 1, -3, 0; 1, 0, -2, 1, 1, 1, 1, -2], [8, 1, 0, 0, -1, -2, 0, 0; 1, 1, -8, 0, -1, -1, 0, 2; 0, -8, 0, 6, 1, 0, 6, 0; 0, 0, 6, 0, -8, 0, -7, 6; -1, -1, 1, -8, 1, 1, 2, -1; -2, -1, 0, 0, 1, 8, -8, -7; 0, 0, 6, -7, 2, -8, -6, 6; 0, 2, 0, 6, -1, -7, 6, -8], [73457785, 2270933, 68680268, 60812126, 32894564, 63677838, 19314852, 62964426; 0, 1, 0, 0, 0, 0, 0, 0; 0, 0, 1, 0, 0, 0, 0, 0; 0, 0, 0, 1, 0, 0, 0, 0; 0, 0, 0, 0, 1, 0, 0, 0; 0, 0, 0, 0, 0, 1, 0, 0; 0, 0, 0, 0, 0, 0, 1, 0; 0, 0, 0, 0, 0, 0, 0, 1], [9371627, -1065707, 632221, -875632, -273688, 361606, -499696, -1580117; -1065707, -4639688, -9010021, -2212338, -4639072, -4263136, -3200734, -909598; 632221, -9010021, -875632, 635294, -792019, -1580117, -273688, -499696; -875632, -2212338, 635294, -788098, -8218002, -499696, -792019, -273688; -273688, -4639072, -792019, -8218002, -6279968, -274304, 3079234, -3988832; 361606, -4263136, -1580117, -499696, -274304, -547992, -5138768, -4780851; -499696, -3200734, -273688, -792019, 3079234, -5138768, -3988832, -274304; -1580117, -909598, -499696, -273688, -3988832, -4780851, -274304, -5138768], [73457785, [-4198198, 34294724, 24759819, -10693992, -25066283, 46581254, -51717899, -50898087; -26805717, -38358829, -8909174, -12420623, -48986282, 75657906, -9228441, 41023907; -34294724, -25066283, -4198198, 24759819, -15957624, 23600732, -50898087, 46581254; 25066283, -15957624, -34294724, -4198198, -59700282, -306464, 46581254, 23600732; 18203007, 45008724, -27112181, 14691558, -83367553, 15957624, -34294724, 25066283; 34160631, -14691558, -2045898, -19603166, 27112181, -4198198, -10693992, 24759819; -27112181, -18203007, 14691558, 34160631, 45008724, 25066283, -4198198, -34294724; 14691558, 27112181, 34160631, -2045898, -18203007, -34294724, 24759819, -4198198]], []], [1.12615302351905 + 0.213054513447738*I, -0.665103716031027 + 0.314130322423916*I, 0.207848387991199 + 0.875325471789628*I, -0.668897695479219 + 1.13619712116207*I], [1, y^7 - 2*y^4 + 1, y, y^2, -y^7 + y^6 + 2*y^4 - 2*y^3 - 1, y^3 - 1, y^5 - y^2, y^4 - y], [1, 0, 0, 1, 0, 0, 2, -1; 0, 0, 0, 0, 0, 0, 1, 1; 0, 1, 0, 0, 1, 0, 0, 2; 0, 0, 1, 0, 0, 1, 0, 0; 0, 0, 0, 0, 0, 0, 1, 0; 0, 0, 0, 1, 0, 0, 2, 0; 0, 0, 0, 0, 0, 1, 0, 0; 0, 0, 0, 0, 1, 0, 0, 2], [1, 0, 0, 0, 0, 0, 0, 0, 0, 0, -1, 0, 0, 0, 0, 0, 0, -1, 0, 1, 0, 0, 1, 0, 0, 0, 1, 0, -1, 0, -1, 1, 0, 0, 0, -1, 0, 0, 0, 0, 0, 0, 0, 0, 0, 1, -1, -1, 0, 0, 1, -1, 0, -1, -1, 1, 0, 0, 0, 1, 0, -1, 1, -1; 0, 1, 0, 0, 0, 0, 0, 0, 1, 0, 0, 0, 0, -1, 0, 0, 0, 0, 0, 0, 1, 0, 1, 0, 0, 0, 0, 0, 0, 0, 1, 1, 0, 0, 1, 0, 0, 0, 0, -1, 0, -1, 0, 0, 0, 1, 0, 1, 0, 0, 1, 1, 0, 0, 0, 0, 0, 0, 0, 1, -1, 1, 0, 0; 0, 0, 1, 0, 0, 0, 0, 0, 0, 0, 0, -1, 0, 0, 0, 0, 1, 0, 0, 0, 0, 0, 0, 0, 0, -1, 0, 1, 0, 0, 1, 0, 0, 0, 0, 0, 1, -1, 0, 0, 0, 0, 0, 0, -1, 0, -1, 1, 0, 0, 0, 1, 0, -1, 1, -1, 0, 0, 0, 0, 0, 1, -1, -1; 0, 0, 0, 1, 0, 0, 0, 0, 0, 0, 0, 0, 1, -1, 0, 0, 0, 0, 1, 0, 0, 0, 0, 0, 1, 0, 0, 0, 0, 0, 0, 0, 0, 1, 0, 0, -1, 0, 0, -1, 0, -1, 0, 0, 0, 0, 1, 0, 0, 0, 0, 0, 0, 1, -1, -1, 0, 0, 0, 0, -1, 0, -1, 1; 0, 0, 0, 0, 1, 0, 0, 0, 0, -1, 0, 0, 1, 0, 0, 0, 0, 0, 0, 0, 0, 0, 1, 0, 0, 0, 0, 0, 0, 0, 0, 1, 1, 1, 0, 0, -1, -1, 0, 0, 0, 0, 0, 0, -1, 1, 0, 0, 0, 0, 1, 0, 0, 0, 0, 0, 0, 0, 0, 1, 0, 0, 0, 0; 0, 0, 0, 0, 0, 1, 0, 0, 0, 0, 0, 0, 0, 0, 0, -1, 0, 0, 0, 1, 0, 0, 1, 0, 0, 0, 1, 0, 0, 0, 0, 1, 0, 0, 0, 0, 0, 0, -1, 0, 1, 0, 0, 0, 0, 0, 0, 0, 0, 0, 1, 0, -1, 0, -1, 1, 0, -1, 0, 1, 0, 0, 1, 0; 0, 0, 0, 0, 0, 0, 1, 0, 0, 0, 0, 0, -1, 0, 0, 0, 0, 0, 0, 0, 0, 0, 0, 1, 0, 0, 0, 0, 0, 1, 0, 0, 0, -1, 0, 0, 1, 0, 0, 0, 0, 0, 0, 1, 0, 0, 0, 0, 1, 0, 0, 0, 0, 0, 0, 0, 0, 0, 1, 0, 0, 0, 0, 0; 0, 0, 0, 0, 0, 0, 0, 1, 0, 0, 0, 0, 0, 0, -1, 0, 0, 0, 0, 0, 0, 1, 0, 0, 0, 0, 0, 1, 0, 0, 1, 0, 0, 0, 0, 0, -1, 0, 0, 0, 0, 0, 1, 0, 0, 0, 0, 0, 0, -1, 0, 1, 0, 0, 1, 0, 1, 0, 0, 0, 0, 0, 0, 0]]'
p1
tp2
Rp3
.