csage.libs.pari.gen_py
pari
p0
(S'[y^7 + 3, [1, 3], -600362847, 1, [[1, -1.16993081275869, 1.36873810664220, -1.60132888555770, 1.87344400457448, -2.19179986692971, 2.56425419972146; 1, 1.05407123989535 + 0.507613955548583*I, 0.853394250906844 + 1.07012254302656*I, 0.356329199185523 + 1.56118022711321*I, -0.416880509612771 + 1.82647285196935*I, -1.36656486474600 + 1.71361813923489*I, -2.31031320333706 + 1.11258820022305*I; 1, -0.729439930635341 + 0.914688741724151*I, -0.304572881831620 - 1.33442098463238*I, 1.44274747316036 + 0.694790564422726*I, -1.68791472388004 + 0.812856889732147*I, 0.487721353434525 - 2.13684686818618*I, 1.59878634289976 + 2.00481466239310*I; 1, 0.260334097119333 + 1.14059820468001*I, -1.23319042239633 + 0.593873207582605*I, -0.998412229567035 - 1.25196933651445*I, 1.16807323120557 - 1.46471750341731*I, 1.97474344477633 + 0.950986321660829*I, -0.570600239423420 + 2.49996299323791*I], [1, -1.16993081275869, 1.36873810664220, -1.60132888555770, 1.87344400457448, -2.19179986692971, 2.56425419972146; 1, 1.56168519544393, 1.92351679393340, 1.91750942629874, 1.40959234235658, 0.347053274488882, -1.19772500311402; 1, 0.546457284346768, -0.216728292119712, -1.20485102792769, -2.24335336158212, -3.08018300398089, -3.42290140356011; 1, 0.185248811088810, -1.63899386646400, 2.13753803758309, -0.875057834147896, -1.64912551475166, 3.60360100529285; 1, -1.64412867235949, 1.02984810280076, 0.747956908737635, -2.50077161361219, 2.62456822162070, -0.406028319493342; 1, 1.40093230179934, -0.639317214813720, -2.25038156608149, -0.296644272211733, 2.92572976643716, 1.92936275381449; 1, -0.880264107560678, -1.82706362997893, 0.253557106947417, 2.63279073462288, 1.02375712311550, -3.07056323266133], [1, -1, 1, -2, 2, -2, 3; 1, 2, 2, 2, 1, 0, -1; 1, 1, 0, -1, -2, -3, -3; 1, 0, -2, 2, -1, -2, 4; 1, -2, 1, 1, -3, 3, 0; 1, 1, -1, -2, 0, 3, 2; 1, -1, -2, 0, 3, 1, -3], [7, 0, 0, 0, 0, 0, 0; 0, 0, 0, 0, 0, 0, -21; 0, 0, 0, 0, 0, -21, 0; 0, 0, 0, 0, -21, 0, 0; 0, 0, 0, -21, 0, 0, 0; 0, 0, -21, 0, 0, 0, 0; 0, -21, 0, 0, 0, 0, 0], [21, 0, 0, 0, 0, 0, 0; 0, 21, 0, 0, 0, 0, 0; 0, 0, 21, 0, 0, 0, 0; 0, 0, 0, 21, 0, 0, 0; 0, 0, 0, 0, 21, 0, 0; 0, 0, 0, 0, 0, 21, 0; 0, 0, 0, 0, 0, 0, 7], [3, 0, 0, 0, 0, 0, 0; 0, 0, 0, 0, 0, 0, -1; 0, 0, 0, 0, 0, -1, 0; 0, 0, 0, 0, -1, 0, 0; 0, 0, 0, -1, 0, 0, 0; 0, 0, -1, 0, 0, 0, 0; 0, -1, 0, 0, 0, 0, 0], [3, [0, 0, 0, 0, 0, 0, -3; 1, 0, 0, 0, 0, 0, 0; 0, 1, 0, 0, 0, 0, 0; 0, 0, 1, 0, 0, 0, 0; 0, 0, 0, 1, 0, 0, 0; 0, 0, 0, 0, 1, 0, 0; 0, 0, 0, 0, 0, 1, 0]], []], [-1.16993081275869, 1.05407123989535 + 0.507613955548583*I, -0.729439930635341 + 0.914688741724151*I, 0.260334097119333 + 1.14059820468001*I], [1, y, y^2, y^3, y^4, y^5, y^6], [1, 0, 0, 0, 0, 0, 0; 0, 1, 0, 0, 0, 0, 0; 0, 0, 1, 0, 0, 0, 0; 0, 0, 0, 1, 0, 0, 0; 0, 0, 0, 0, 1, 0, 0; 0, 0, 0, 0, 0, 1, 0; 0, 0, 0, 0, 0, 0, 1], [1, 0, 0, 0, 0, 0, 0, 0, 0, 0, 0, 0, 0, -3, 0, 0, 0, 0, 0, -3, 0, 0, 0, 0, 0, -3, 0, 0, 0, 0, 0, -3, 0, 0, 0, 0, 0, -3, 0, 0, 0, 0, 0, -3, 0, 0, 0, 0, 0; 0, 1, 0, 0, 0, 0, 0, 1, 0, 0, 0, 0, 0, 0, 0, 0, 0, 0, 0, 0, -3, 0, 0, 0, 0, 0, -3, 0, 0, 0, 0, 0, -3, 0, 0, 0, 0, 0, -3, 0, 0, 0, 0, 0, -3, 0, 0, 0, 0; 0, 0, 1, 0, 0, 0, 0, 0, 1, 0, 0, 0, 0, 0, 1, 0, 0, 0, 0, 0, 0, 0, 0, 0, 0, 0, 0, -3, 0, 0, 0, 0, 0, -3, 0, 0, 0, 0, 0, -3, 0, 0, 0, 0, 0, -3, 0, 0, 0; 0, 0, 0, 1, 0, 0, 0, 0, 0, 1, 0, 0, 0, 0, 0, 1, 0, 0, 0, 0, 0, 1, 0, 0, 0, 0, 0, 0, 0, 0, 0, 0, 0, 0, -3, 0, 0, 0, 0, 0, -3, 0, 0, 0, 0, 0, -3, 0, 0; 0, 0, 0, 0, 1, 0, 0, 0, 0, 0, 1, 0, 0, 0, 0, 0, 1, 0, 0, 0, 0, 0, 1, 0, 0, 0, 0, 0, 1, 0, 0, 0, 0, 0, 0, 0, 0, 0, 0, 0, 0, -3, 0, 0, 0, 0, 0, -3, 0; 0, 0, 0, 0, 0, 1, 0, 0, 0, 0, 0, 1, 0, 0, 0, 0, 0, 1, 0, 0, 0, 0, 0, 1, 0, 0, 0, 0, 0, 1, 0, 0, 0, 0, 0, 1, 0, 0, 0, 0, 0, 0, 0, 0, 0, 0, 0, 0, -3; 0, 0, 0, 0, 0, 0, 1, 0, 0, 0, 0, 0, 1, 0, 0, 0, 0, 0, 1, 0, 0, 0, 0, 0, 1, 0, 0, 0, 0, 0, 1, 0, 0, 0, 0, 0, 1, 0, 0, 0, 0, 0, 1, 0, 0, 0, 0, 0, 0]]'
p1
tp2
Rp3
.