csage.libs.pari.gen_py
pari
p0
(S'[y^3 - 2, [1, 1], -108, 1, [[1, 1.25992104989487, 1.58740105196820; 1, -0.629960524947437 + 1.09112363597172*I, -0.793700525984100 - 1.37472963699860*I], [1, 1.25992104989487, 1.58740105196820; 1, 0.461163111024285, -2.16843016298270; 1, -1.72108416091916, 0.581029111014503], [1, 1, 2; 1, 0, -2; 1, -2, 1], [3, 0, 0; 0, 0, 6; 0, 6, 0], [6, 0, 0; 0, 6, 0; 0, 0, 3], [2, 0, 0; 0, 0, 1; 0, 1, 0], [2, [0, 0, 2; 1, 0, 0; 0, 1, 0]], []], [1.25992104989487, -0.629960524947437 + 1.09112363597172*I], [1, y, y^2], [1, 0, 0; 0, 1, 0; 0, 0, 1], [1, 0, 0, 0, 0, 2, 0, 2, 0; 0, 1, 0, 1, 0, 0, 0, 0, 2; 0, 0, 1, 0, 1, 0, 1, 0, 0]]'
p1
tp2
Rp3
.