csage.libs.pari.gen_py
pari
p0
(S'[y^2 - 2, [2, 0], 8, 1, [[1, -1.41421356237310; 1, 1.41421356237310], [1, -1.41421356237310; 1, 1.41421356237310], [1, -1; 1, 1], [2, 0; 0, 4], [4, 0; 0, 2], [2, 0; 0, 1], [2, [0, 2; 1, 0]], []], [-1.41421356237310, 1.41421356237310], [1, y], [1, 0; 0, 1], [1, 0, 0, 2; 0, 1, 1, 0]]'
p1
tp2
Rp3
.