csage.libs.pari.gen_py
pari
p0
(S'[y^4 - 6*y^2 + 7, [4, 0], 7168, 1, [[1, 1.41421356237310, -2.10100298961546, -0.870263932885142; 1, -1.41421356237310, -1.25928012674977, 3.04017116082619; 1, -1.41421356237310, 1.25928012674977, -3.04017116082619; 1, 1.41421356237310, 2.10100298961546, 0.870263932885142], [1, 1.41421356237310, -2.10100298961546, -0.870263932885142; 1, -1.41421356237310, -1.25928012674977, 3.04017116082619; 1, -1.41421356237310, 1.25928012674977, -3.04017116082619; 1, 1.41421356237310, 2.10100298961546, 0.870263932885142], [1, 1, -2, -1; 1, -1, -1, 3; 1, -1, 1, -3; 1, 1, 2, 1], [4, 0, 0, 0; 0, 8, 0, 0; 0, 0, 12, -4; 0, 0, -4, 20], [56, 40, 0, 0; 0, 4, 0, 0; 0, 0, 8, 4; 0, 0, 0, 4], [14, 0, 0, 0; 0, 7, 0, 0; 0, 0, 5, 1; 0, 0, 1, 3], [14, [0, 0, 14, 0; 0, 0, 7, 7; 5, 6, 0, 0; 1, 4, 0, 0]], []], [-2.10100298961546, -1.25928012674977, 1.25928012674977, 2.10100298961546], [1, y^2 - 3, y, y^3 - 4*y], [1, 0, 3, 0; 0, 0, 1, 0; 0, 1, 0, 4; 0, 0, 0, 1], [1, 0, 0, 0, 0, 2, 0, 0, 0, 0, 3, -1, 0, 0, -1, 5; 0, 1, 0, 0, 1, 0, 0, 0, 0, 0, 1, 2, 0, 0, 2, -3; 0, 0, 1, 0, 0, 0, 1, 1, 1, 1, 0, 0, 0, 1, 0, 0; 0, 0, 0, 1, 0, 0, 1, -1, 0, 1, 0, 0, 1, -1, 0, 0]]'
p1
tp2
Rp3
.