csage.libs.pari.gen_py
pari
p0
(S'[y^3 - y - 1, [1, 1], -23, 1, [[1, 0.754877666246693, 1.32471795724475; 1, -0.877438833123346 - 0.744861766619744*I, -0.662358978622373 + 0.562279512062301*I], [1, 0.754877666246693, 1.32471795724475; 1, -1.62230059974309, -0.100079466560072; 1, -0.132577066503602, -1.22463849068467], [1, 1, 1; 1, -2, 0; 1, 0, -1], [3, -1, 0; -1, 1, 3; 0, 3, 2], [23, 16, 13; 0, 1, 0; 0, 0, 1], [7, -2, 3; -2, -6, 9; 3, 9, -2], [23, [10, 1, 8; 7, 3, 1; 1, 7, 10]], []], [1.32471795724475, -0.662358978622373 + 0.562279512062301*I], [1, y^2 - 1, y], [1, 0, 1; 0, 0, 1; 0, 1, 0], [1, 0, 0, 0, 0, 1, 0, 1, 1; 0, 1, 0, 1, -1, 0, 0, 0, 1; 0, 0, 1, 0, 1, 0, 1, 0, 0]]'
p1
tp2
Rp3
.