csage.libs.pari.gen_py
pari
p0
(S'[y^3 + y + 1, [1, 1], -31, 1, [[1, 1.46557123187677, -0.682327803828019; 1, -0.232785615938384 + 0.792551992515448*I, 0.341163901914010 + 1.16154139999725*I], [1, 1.46557123187677, -0.682327803828019; 1, 0.559766376577064, 1.50270530191126; 1, -1.02533760845383, -0.820377498083242], [1, 1, -1; 1, 1, 2; 1, -1, -1], [3, 1, 0; 1, 1, -3; 0, -3, -2], [31, 20, 17; 0, 1, 0; 0, 0, 1], [11, -2, 3; -2, 6, -9; 3, -9, -2], [31, [14, -1, 10; -11, 3, 1; 1, 11, 14]], []], [-0.682327803828019, 0.341163901914010 + 1.16154139999725*I], [1, y^2 + 1, y], [1, 0, -1; 0, 0, 1; 0, 1, 0], [1, 0, 0, 0, 0, -1, 0, -1, -1; 0, 1, 0, 1, 1, 0, 0, 0, 1; 0, 0, 1, 0, -1, 0, 1, 0, 0]]'
p1
tp2
Rp3
.