csage.libs.pari.gen_py
pari
p0
(S'[y^23 - 5*y^7 + 6*y^6 + 2*y^5 + 4*y^4 + y^3 - 3*y^2 - 2*y + 1, [3, 10], 360021951960796641859175699122802869179392315765, 1, [[1, -1.15800811377035, 0.863551807719299, 1.34098279155796, -1.55286895305053, 1.79823484725458, -2.08237054358539, -1.60927353233457, 2.41140198534825, -2.79242306459520, 3.23364856588070, 1.27186098485831, -3.74459127637171, -0.352596128026770, 4.33626708079210, -5.02143246303252, 2.32604494524199, 5.81485953494148, -4.16666843107041, -6.73365452189711, 2.69838796512275, 6.52576558682495, -7.04593381841408; 1, 0.369787353993089, -2.70425689034972, 0.136742687173210, 0.0505657164676861, 0.0186985624953504, 0.00691449194863003, -4.60874843865420, 0.00255689168189042, 0.000945506209493196, 0.000349636239392524, -2.44597750176547, 0.000129291059825056, 0.698453816214243, 4.78101989076695 E-5, 1.76796069479504 E-5, -1.18524569925438, 6.53769507292040 E-6, -3.83542149497294, 2.41755696222889 E-6, -5.08450090843371, 2.44597839574747, -1.10131119524776; 1, 0.686721415963980, -1.45619457432569, 0.471586303143574, 0.323848413843974, 0.222393641312623, 0.152722476263590, -0.664308063969879, 0.104877795149258, 0.0720218279880785, 0.0494589316962875, 2.60933541418751, 0.0339645076065403, 5.92020271103128, 0.0233241547560827, 0.0160171965802601, 6.47805107642230, 0.0109993519153697, 9.12002424565481, 0.00755349052200877, 6.30847909268125, -2.60414827048077, 2.67568374902090; 1, 1.07222032319500 + 0.185907878921617*I, -0.905424657872373 + 0.156987863433522*I, 1.11509468202726 + 0.398668412043665*I, 1.12151158148020 + 0.634765260741558*I, 1.08449964712405 + 0.889106052324284*I, 0.997530741820231 + 1.15493460786585*I, 0.110276036054492 + 0.127293501645301*I, 0.854861291149927 + 1.42379318288592*I, 0.651905279230292 + 1.68554543612665*I, 0.385629912332513 + 1.92847040000308*I, 1.82040345675868 - 0.343326552623884*I, 0.0549623876071316 + 2.13943679461376*I, 2.38948869688687 - 0.880918940790347*I, -0.338806367569820 + 2.30416555227655*I, -0.791637603444225 + 2.40758635999671*I, 0.0475634224285284 - 1.20164647128931*I, -1.29639920052589 + 2.43429135730464*I, -0.0733584934555499 - 0.909559346293689*I, -1.84257951269133 + 2.36908584027453*I, -2.55436483098494 - 0.322244388101569*I, -4.23648638091774 + 2.54095848901086*I, -3.53076696066422 + 1.21294005779875*I; 1, -0.640837558059520 + 0.322181035408136*I, 1.24561845917382 + 0.626234589176238*I, 0.306872156243030 - 0.412931415968076*I, -0.0636165320941008 + 0.363490349291348*I, -0.0763418340161530 - 0.253434307997222*I, 0.130574442247186 + 0.137814331937164*I, -2.40501404432764 - 2.18633331727835*I, -0.128078170872267 - 0.0462479909431779*I, 0.0969775278701325 - 0.0116269081236221*I, -0.0584008728490809 + 0.0386952797502450*I, 1.54034946741866 + 5.16330425884710*I, 0.0249585874498081 - 0.0436130422668328*I, 2.47414757628962 - 5.83602848296539*I, -0.00194310511912302 + 0.0359900590527275*I, -0.0103500997504160 - 0.0236898131769537*I, -4.85011077396383 + 6.02412156941484*I, 0.0142651411877053 + 0.0118467161730388*I, 8.17306324719785 - 4.14426886376965*I, -0.0129584255269193 - 0.00299586270525625*I, -5.18671273793544 - 3.70311498000614*I, -1.53108001149937 - 5.16555935646031*I, 6.36518487315300 - 2.39279439318119*I; 1, -1.07044971721453 + 0.426089824672027*I, 0.806416687866528 + 0.320992139677293*I, 0.964310058395632 - 0.912215464656320*I, -0.643559701918210 + 1.38736348989135*I, 0.0977568347648410 - 1.75931709598427*I, 0.644983336840624 + 1.92491368047249*I, -1.35368860860154 - 0.838698975896797*I, -1.51060836315044 - 1.78570246801336*I, 2.37789994666852 + 1.26784984931133*I, -3.08564024547928 - 0.343970541302188*I, 0.563276538201324 + 1.30757894973374*I, 3.44958507583487 - 0.946556742530159*I, 0.512758885317800 - 0.717553990776034*I, -3.28928917246810 + 2.48307449752263*I, 2.46300588720830 - 4.05953904048825*I, 1.23303989227577 + 0.308958255875580*I, -0.906795677448965 + 5.39499416455875*I, -2.96562049152639 - 0.218855382049235*I, -1.32807294118684 - 6.16144638904354*I, 2.54806337202661 + 2.14429585936530*I, 3.48368837776605 + 4.72206122838845*I, -4.42195990655350 - 3.96692678760254*I; 1, 0.980154259445924 + 0.551851026492816*I, -0.774677346638400 + 0.436162455881994*I, 0.656162816868814 + 1.08179826839308*I, 0.0461492949731334 + 1.42243330466217*I, -0.739737851257045 + 1.41967159814521*I, -1.50850443450210 + 0.983272071384644*I, 0.364790043164701 + 0.239607892169908*I, -2.02118674878563 + 0.131288588312927*I, -2.05352654318518 - 0.986710912999470*I, -1.46825535799780 - 2.10036963500519*I, 1.57166719952857 - 1.08542171890211*I, -0.280025604003885 - 2.86894447062588*I, 1.15400207681910 - 2.20212419081024*I, 1.30876166254745 - 2.96654056001160*I, 2.91987677132039 - 2.18542589880321*I, -1.82133623441984 - 2.32495667563427*I, 4.06795918004543 - 0.530717509929721*I, -2.44485247543469 - 0.454841757045350*I, 4.28010452020611 + 1.72472242131879*I, -2.27212761144225 + 1.16569674304499*I, 1.67170563820525 + 5.13789581949189*I, -0.817498949992407 + 4.19250120957354*I; 1, -0.834687261132269 + 0.793570214137507*I, 0.629260933683952 + 0.598263274336482*I, 0.0669491391302393 - 1.32476589710917*I, 0.995413163075206 + 1.15889406097539*I, -1.75052249491318 - 0.177383872721116*I, 1.60190538468934 - 1.24110245225015*I, -0.667311310924942 - 1.35119068753207*I, -0.352188079340643 + 2.30715680580916*I, -1.53692401708651 - 2.20524036478256*I, 3.03286396689551 + 0.621028918866258*I, -0.979665382848368 + 1.40414350235632*I, -3.02432297004504 + 1.88842558028679*I, 1.49456302010799 + 0.455452581573562*I, 1.02576556451537 - 3.97625740242132*I, 2.29924598869620 + 4.13294839947130*I, 0.795958626090764 - 1.37604762264280*I, -5.19893608336190 - 1.62510624835125*I, -3.15879168572515 + 1.18327041207387*I, 5.62912163372336 - 2.76926533747547*I, 3.33470224346151 + 4.40363720569311*I, -1.52128424932060 + 5.37443025780953*I, -0.871367233295998 - 4.63949848362475*I; 1, 0.753900167739157 + 0.870436989708265*I, -0.568541007989159 + 0.656425273128484*I, -0.189295090135258 + 1.31244518509486*I, -1.28511043627624 + 0.824683196767572*I, -1.68667973272936 - 0.496878859220233*I, -0.839086394957561 - 1.84274548447106*I, 0.676196269425635 + 0.0899840997795703*I, 0.971406458395336 - 2.11961796557532*I, 2.57733737321409 - 0.752432226361363*I, 2.59799992005997 + 1.67615100293690*I, 0.904398892445467 - 1.79554731609105*I, 0.499648742226643 + 3.52504575194960*I, -0.772110040881437 - 2.36092194388130*I, -2.69164494233559 + 3.09244533077829*I, -4.72101037808109 - 0.0115122673721497*I, -3.31118622849692 - 1.04946011386694*I, -3.54914981257750 - 4.11802116218131*I, -2.81753713013286 + 2.44732220314630*I, 0.908773304930452 - 6.19388812380550*I, 2.07498362708848 + 2.01749945173240*I, 5.17211478765350 - 2.08299607953259*I, 4.37172399415002 + 1.22713226167827*I; 1, -0.133520251637492 + 0.944473787300151*I, 0.146748387154443 + 1.03804481564524*I, -0.874203077299751 - 0.252212755490662*I, 0.354932151247005 - 0.791986380707444*I, 0.700619746328163 + 0.440970333968373*I, -0.510031846242053 + 0.602838515315705*I, 0.909253563001078 - 1.34270762062517*I, -0.501265595237250 - 0.562202859725645*I, 0.597914972569350 - 0.398366747875105*I, 0.296413193504761 + 0.617905047046333*I, -2.72997251571212 - 1.48018778009880*I, -0.623172284161156 + 0.197451654105472*I, -2.19188413781180 + 3.35571179118410*I, -0.103281791366966 - 0.614933681904574*I, 0.594578954259728 - 0.0154408447032344*I, 4.08530332848346 + 1.87639970098424*I, -0.0648048585151382 + 0.563625902248920*I, 0.214755055555844 - 3.57161278294685*I, -0.523677129501228 - 0.136461962454927*I, -7.72584265341361 - 0.924750068784262*I, 2.92877876432214 + 1.00380889384223*I, -3.38425821595294 + 7.02588256243115*I; 1, -0.485314793482186 + 1.02477127517688*I, 0.377475185433562 + 0.797061479104862*I, -0.814625717654997 - 0.994673319557889*I, 1.41466255799677 - 0.352075358809717*I, -0.325759952775392 + 1.62057293355425*I, -1.50262046742957 - 1.12031746077790*I, 0.115344300421166 - 1.39880333835898*I, 1.87731309471698 - 0.996135655402772*I, 0.109723388972284 + 2.40725590386142*I, -2.52013708613639 - 1.05583552460742*I, -2.02876654032770 + 0.240757430981382*I, 2.30504972643408 - 2.07015149580454*I, 0.464888014200382 + 2.12791356274196*I, 1.00275705621442 + 3.36682389316719*I, -3.93687724794645 - 0.606372815213852*I, 2.38338422127602 - 1.40148869097131*I, 2.53201821163114 - 3.74011702000422*I, -3.50205584334211 - 0.345905274001134*I, 2.60393859242958 + 4.40987365066689*I, -0.152556601021267 + 5.69211854155940*I, -3.75407522426040 + 0.287507120809043*I, 2.36964240299855 - 1.06162487178855*I; 1, 0.411223117404410 + 1.07579787376295*I, -0.310018852629128 + 0.811038116217704*I, -0.988236612905076 + 0.884785910691669*I, -1.35823654214951 - 0.699298426507849*I, 0.193765495327610 - 1.74875566305614*I, 1.96098847508073 - 0.510676247458493*I, 0.871689989601609 - 0.308163903761100*I, 1.35578821511391 + 1.89962535350123*I, -1.48608145988351 + 2.23972393885963*I, -3.02060130189135 - 0.677697014518072*I, -0.231344625911462 - 2.11642275563236*I, -0.513076076525542 - 3.52824113702609*I, -2.34989185730782 - 0.971375857239603*I, 3.58468556968117 - 2.00286047152716*I, 3.62877861159167 + 3.03277458714426*I, -2.23757559283360 + 1.33994727898795*I, -1.77041479942292 + 5.15097933481710*I, -0.195719183575377 + 3.30596588548479*I, -6.26944810911071 + 0.213593302851554*I, 4.56348680604669 - 1.80871969107779*I, -2.57658059097993 - 4.54040168596076*I, 1.16509426698287 - 4.79933579794601*I; 1, -0.00193861435185354 + 1.10348901391580*I, 0.00159204029480857 + 0.906213746613828*I, -1.21768424560726 - 0.00427847927897977*I, 0.00708187503518076 - 1.34369289312463*I, 1.48273661661518 + 0.0104196736263416*I, -0.0143724498602451 + 1.63616336723670*I, 0.819628779664762 - 0.909099204214465*I, -1.80546043807962 - 0.0190317303095382*I, 0.0245013968293487 - 1.99226886329495*I, 2.19839930465296 + 0.0308992632379123*I, -1.64795593819323 - 1.64463983370063*I, -0.0383588459642336 + 2.42584957912950*I, -2.30899243323008 + 1.49890411549093*I, -2.67682399697237 - 0.0470313519175586*I, 0.0570879095685503 - 2.95375469719137*I, 1.36553417795469 + 1.89277910076852*I, 3.25932518671206 + 0.0687220722841440*I, 0.711149840632700 - 0.136990210215349*I, -0.0821526263633981 + 3.59649631072021*I, -1.09081468851094 - 2.72712609873981*I, -2.32057896701472 + 1.54701309367994*I, -4.01001363850492 - 0.158614595705976*I], [1, -1.15800811377035, 0.863551807719299, 1.34098279155796, -1.55286895305053, 1.79823484725458, -2.08237054358539, -1.60927353233457, 2.41140198534825, -2.79242306459520, 3.23364856588070, 1.27186098485831, -3.74459127637171, -0.352596128026770, 4.33626708079210, -5.02143246303252, 2.32604494524199, 5.81485953494148, -4.16666843107041, -6.73365452189711, 2.69838796512275, 6.52576558682495, -7.04593381841408; 1, 0.369787353993089, -2.70425689034972, 0.136742687173210, 0.0505657164676861, 0.0186985624953504, 0.00691449194863003, -4.60874843865420, 0.00255689168189042, 0.000945506209493196, 0.000349636239392524, -2.44597750176547, 0.000129291059825056, 0.698453816214243, 4.78101989076695 E-5, 1.76796069479504 E-5, -1.18524569925438, 6.53769507292040 E-6, -3.83542149497294, 2.41755696222889 E-6, -5.08450090843371, 2.44597839574747, -1.10131119524776; 1, 0.686721415963980, -1.45619457432569, 0.471586303143574, 0.323848413843974, 0.222393641312623, 0.152722476263590, -0.664308063969879, 0.104877795149258, 0.0720218279880785, 0.0494589316962875, 2.60933541418751, 0.0339645076065403, 5.92020271103128, 0.0233241547560827, 0.0160171965802601, 6.47805107642230, 0.0109993519153697, 9.12002424565481, 0.00755349052200877, 6.30847909268125, -2.60414827048077, 2.67568374902090; 1, 1.25812820211662, -0.748436794438851, 1.51376309407092, 1.75627684222176, 1.97360569944833, 2.15246534968608, 0.237569537699792, 2.27865447403584, 2.33745071535694, 2.31410031233560, 1.47707690413480, 2.19439918222089, 1.50856975609653, 1.96535918470673, 1.61594875655248, -1.15408304886078, 1.13789215677875, -0.982917839749239, 0.526506327583192, -2.87660921908651, -1.69552789190688, -2.31782690286547; 1, 0.886312444273383, -1.06241252130589, 0.716426269983590, 0.486746320738645, 0.195393594799764, -0.157403866045617, -0.0170174655908090, -0.568931891735989, -1.03364015689636, -1.54284048767057, 2.16373000938256, -2.08447440700663, 3.27040763767722, -2.64297191984637, -3.19922396344093, 1.24920989371784, -3.73069055783052, 0.836200852838139, -4.21166535296586, -2.23212044288337, -6.77744486992860, -4.74370701846297; 1, -0.318656522651384, 1.87185304835005, -0.106059259725045, 0.299873817197248, -0.329776142013375, 0.268388774184350, -4.59134736160598, -0.174326161815445, 0.0853506197465104, -0.0197055930988359, 6.70365372626576, -0.0186544548170247, -3.36188090667577, 0.0340469539336045, -0.0340399129273697, 1.17401079545101, 0.0261118573607440, 4.02879438342820, -0.0159542882321755, -8.88982771794158, -6.69663936795968, 3.97239047997182; 1, -0.963018593467656, 0.619383869997578, 0.719803572211106, -0.427106881385449, 0.177092473981069, -0.00723988968997766, -0.218680727049292, -0.0818301799290887, 0.108604435993755, -0.0970961525993260, -3.62295479142845, 0.0685716297166410, 8.31017605925501, -0.0379331641718505, 0.0133397134265378, -10.8742323433787, 0.00241842501466651, 12.3173321109675, -0.00996256282166301, -1.48359775792930, 3.63447934496094, 8.75797926633419; 1, -0.644359892542505, 1.12740882754382, 0.0520945937393118, 0.743803787973137, -1.66156026121943, 2.56989701731312, -2.19238758449834, -3.29631083116381, 3.64574979597984, -3.42961078678147, 1.87085548793507, 2.50302833330471, -0.204795105458234, -0.806214674945466, -1.59653315327995, 1.54199814815135, 4.48819848710978, -3.18447587357562, -7.48951933023038, 4.69235923139191, 8.20574960615450, -8.38888669415604; 1, -1.49653954188656, 0.485424548189235, 1.87652552305195, -2.03092319180956, 1.85707393074911, -1.27993034363187, -0.514989632704745, 0.275094104862923, 1.11005009735719, -2.74166970417709, -0.744302411532417, 4.39614181836502, 1.23031287609383, -5.77236366999073, 6.52254492769654, 0.924081636400187, -6.30178984200771, -2.74676510947715, 4.83337344785670, 0.403767512661317, -1.23837285062240, -0.455033118950954; 1, 1.53200528593874, -0.338514890756405, 1.73796108526189, 1.46858259963531, 0.679933746888169, -0.525232363117457, 0.604397935334609, -1.88989816047270, -3.04023745618465, -3.56862499300299, 0.486245480626464, -3.14897007462976, -1.04812211399114, -1.65777889746415, 0.734450872517178, -4.14629291005411, 3.53724167011571, -2.89969423248004, 6.00482694152490, -1.10643086839725, 6.80960145769714, 3.37500225958113; 1, 0.428303232953109, -1.21083980252039, -0.425635451524264, -1.37628400968904, -2.15940944940226, -2.49177650588674, 0.125182150994793, -2.15247533709856, -1.06681563018571, 0.632114277007395, 2.65708891843068, 2.58891886662199, 3.35612626762933, 4.27530222255906, 5.10530267012361, 0.503620441214423, 4.59867668997515, -1.99001071838934, 2.55538209888731, -3.43782435448724, -3.46619018128664, -5.01000015956594; 1, -0.0411170469947616, 1.22752420802043, -1.25781675797893, 2.15430722405059, -1.92790636763429, 0.360802932439192, -2.01850199845701, 1.95496872646852, -3.74216438186907, 3.65389288576177, 0.424478119507951, -1.13589738975825, 1.95001560168155, -2.95049183790595, 6.43219438816750, -0.580088996552033, -6.82404233171314, -1.97552127365128, 2.85985629624789, 7.73833944915462, 3.85314600848893, -5.51086571692075; 1, -1.62825747526978, 0.0309976593474698, 1.39171503623941, -0.163480897900184, -1.57313862219206, 2.84300783693949, 0.683879376607126, -2.65934488514981, 0.668316347696046, 2.41183504802925, -2.38380888520469, -4.91274855033183, 1.03911043853443, 5.00202296693669, -1.83370241077510, 2.17200624873356, -3.57382983501065, -4.34206209779902, 8.39838697119884, -1.06893496223160, -6.89571450713013, 3.76813125032875; 1, 1.62433715744742, 0.0878842651393257, 1.12315009495960, -0.460427239508672, -2.18355859194959, -2.68183187942862, 0.766180369205206, -1.14821150717999, 1.82490514685272, 4.27415092299687, -0.891148423645583, 4.02469449417624, -3.13303198476274, 0.400800388442692, -4.73252264545324, -4.36064634236385, -7.66717097475881, -0.370214926986553, -5.28511481887505, 4.09248307882088, 3.08911870812091, 5.59885625582830; 1, -0.116536821969109, -1.22496628111764, -1.50174027523011, -2.10979363304382, -1.18980087350912, 1.00365908951350, 0.586212169646065, 3.09102442397066, 3.32976959957545, 0.921848917123071, 2.69994620853652, -3.02539700972296, 1.58881190299987, -5.78409027311388, -4.70949811070894, -2.26172611462998, 0.568871349603802, -5.26485933327916, 7.10266142873595, 0.0574841753560814, 7.25511086718610, 3.14459173247175; 1, 0.810953535662659, 1.18479320279968, -1.12641583279041, -0.437054229460440, 1.14159008029654, 0.0928066690736518, -0.433454057624096, -1.06346845496290, 0.199548224694245, 0.914318240551094, -4.21016029581092, -0.425720630055685, 1.16382765337230, -0.718215473271540, 0.579138109556493, 5.96170302946770, 0.498821043733781, -3.35685772739101, -0.660139091956155, -8.65059272219788, 3.93258765816437, 3.64162434647821; 1, -1.07799403893764, -0.891296428490793, -0.621990321809090, 1.14691853195445, 0.259649412359790, -1.11287036155776, 2.25196118362625, 0.0609372644883945, 0.996281720444455, -0.321491853541572, -1.24978473561331, -0.820623938266628, -5.54759592899590, 0.511651890537608, 0.610019798962962, 2.20890362749922, -0.628430760764058, 3.78636783850270, -0.387215167046301, -6.80109258462935, 1.92496987047990, -10.4101407783841; 1, 0.539456481694697, 1.17453666453842, -1.80929903721289, 1.06258719918706, 1.29481298077886, -2.62293792820747, -1.28345903793781, 0.881177439314210, 2.51697929283370, -3.57597261074381, -1.78800910934632, 0.234898230629540, 2.59280157694234, 4.36958094938162, -4.54325006316030, 0.981895530304707, -1.20809880837307, -3.84796111734324, 7.01381224309647, 5.53956194053813, -3.46656810345135, 1.30801753121000; 1, -1.51008606865907, -0.419586293671300, 0.180047601902892, 1.76673791680649, -1.94633288632964, -0.382303006651673, 1.51414763878014, 2.87344875011975, -2.29753251488914, -1.46430156152897, -2.26952397130908, 4.37520122223862, -1.66302554854157, -2.36406683695277, -3.33050443273260, 3.78487291224733, 6.27213523163536, -3.15615056934097, -1.80593505823731, -5.84467514258067, -4.04158234506944, 3.43126727478710; 1, 1.48702099116736, 0.501019263588576, -0.103450702213407, -2.05753496865736, -1.55499016772853, 1.45031222762224, 0.563526085840509, 3.25541356861513, 0.753642478976122, -3.69829831640942, -2.34776738154382, -4.04131721355163, -3.32126771454742, 1.58182509815401, 6.66155319873592, -0.897628313845650, 3.38056453539419, 3.11024670190941, -6.05585480625916, 2.75476711496890, -7.11698227694069, -3.63424153096314; 1, -0.664574756358537, -1.12105696884683, -1.87302252359675, -0.658938115641661, 1.94252115838375, 2.47166472253923, 1.17985389336271, -0.543837138387323, -3.72580539874314, -2.34290428737328, 1.88507812972089, 3.01516506050055, -1.37851600006821, 5.58754604120833, 0.596004024447410, -3.57752287182156, -6.92139413424002, -3.50168506906017, -6.48304141196227, 6.37220649712448, 1.96382109498082, 5.96443006492888; 1, 1.10155039956395, 0.907805786908636, -1.22196272488624, -1.33661101808945, 1.49315629024152, 1.62179091737646, -0.0894704245497032, -1.82449216838915, -1.96776746646560, 2.22929856789087, -3.29259577189386, 2.38749073316527, -0.810088317739156, -2.72385534888992, -2.89666678762282, 3.25831327872322, 3.32804725899621, 0.574159630417351, 3.51434368435681, -3.81794078725075, -0.773565873334782, -4.16862823421089; 1, -1.10542762826765, -0.904621706319019, -1.21340576632828, 1.35077476815981, 1.47231694298884, -1.65053581709695, 1.72872798387923, -1.78642870777008, 2.01677026012429, 2.16750004141505, -0.00331610449260385, -2.46420842509373, -3.80789654872101, -2.62979264505481, 3.01084260675992, -0.527244922813832, 3.19060311442792, 0.848140050848049, -3.67864893708361, 1.63631141022887, -3.86759206069465, -3.85139904279894], [1, -1, 1, 1, -2, 2, -2, -2, 2, -3, 3, 1, -4, 0, 4, -5, 2, 6, -4, -7, 3, 7, -7; 1, 0, -3, 0, 0, 0, 0, -5, 0, 0, 0, -2, 0, 1, 0, 0, -1, 0, -4, 0, -5, 2, -1; 1, 1, -1, 0, 0, 0, 0, -1, 0, 0, 0, 3, 0, 6, 0, 0, 6, 0, 9, 0, 6, -3, 3; 1, 1, -1, 2, 2, 2, 2, 0, 2, 2, 2, 1, 2, 2, 2, 2, -1, 1, -1, 1, -3, -2, -2; 1, 1, -1, 1, 0, 0, 0, 0, -1, -1, -2, 2, -2, 3, -3, -3, 1, -4, 1, -4, -2, -7, -5; 1, 0, 2, 0, 0, 0, 0, -5, 0, 0, 0, 7, 0, -3, 0, 0, 1, 0, 4, 0, -9, -7, 4; 1, -1, 1, 1, 0, 0, 0, 0, 0, 0, 0, -4, 0, 8, 0, 0, -11, 0, 12, 0, -1, 4, 9; 1, -1, 1, 0, 1, -2, 3, -2, -3, 4, -3, 2, 3, 0, -1, -2, 2, 4, -3, -7, 5, 8, -8; 1, -1, 0, 2, -2, 2, -1, -1, 0, 1, -3, -1, 4, 1, -6, 7, 1, -6, -3, 5, 0, -1, 0; 1, 2, 0, 2, 1, 1, -1, 1, -2, -3, -4, 0, -3, -1, -2, 1, -4, 4, -3, 6, -1, 7, 3; 1, 0, -1, 0, -1, -2, -2, 0, -2, -1, 1, 3, 3, 3, 4, 5, 1, 5, -2, 3, -3, -3, -5; 1, 0, 1, -1, 2, -2, 0, -2, 2, -4, 4, 0, -1, 2, -3, 6, -1, -7, -2, 3, 8, 4, -6; 1, -2, 0, 1, 0, -2, 3, 1, -3, 1, 2, -2, -5, 1, 5, -2, 2, -4, -4, 8, -1, -7, 4; 1, 2, 0, 1, 0, -2, -3, 1, -1, 2, 4, -1, 4, -3, 0, -5, -4, -8, 0, -5, 4, 3, 6; 1, 0, -1, -2, -2, -1, 1, 1, 3, 3, 1, 3, -3, 2, -6, -5, -2, 1, -5, 7, 0, 7, 3; 1, 1, 1, -1, 0, 1, 0, 0, -1, 0, 1, -4, 0, 1, -1, 1, 6, 0, -3, -1, -9, 4, 4; 1, -1, -1, -1, 1, 0, -1, 2, 0, 1, 0, -1, -1, -6, 1, 1, 2, -1, 4, 0, -7, 2, -10; 1, 1, 1, -2, 1, 1, -3, -1, 1, 3, -4, -2, 0, 3, 4, -5, 1, -1, -4, 7, 6, -3, 1; 1, -2, 0, 0, 2, -2, 0, 2, 3, -2, -1, -2, 4, -2, -2, -3, 4, 6, -3, -2, -6, -4, 3; 1, 1, 1, 0, -2, -2, 1, 1, 3, 1, -4, -2, -4, -3, 2, 7, -1, 3, 3, -6, 3, -7, -4; 1, -1, -1, -2, -1, 2, 2, 1, -1, -4, -2, 2, 3, -1, 6, 1, -4, -7, -4, -6, 6, 2, 6; 1, 1, 1, -1, -1, 1, 2, 0, -2, -2, 2, -3, 2, -1, -3, -3, 3, 3, 1, 4, -4, -1, -4; 1, -1, -1, -1, 1, 1, -2, 2, -2, 2, 2, 0, -2, -4, -3, 3, -1, 3, 1, -4, 2, -4, -4], [23, 0, -2, 0, 0, 0, 0, -8, 0, 0, 0, -1, 0, 8, 0, 0, 3, 0, -11, 0, -9, 1, -11; 0, 0, -23, 0, 0, 0, 0, 21, 0, 0, 0, 17, 0, 1, 0, 0, -15, 0, 3, 0, -17, -17, 14; -2, -23, 10, 0, 0, 0, 0, 13, 0, 0, 0, 2, 0, -5, 0, 0, -12, 0, 14, 0, -2, -2, 4; 0, 0, 0, 0, 0, 0, 0, -23, 0, 0, 0, 44, 0, 40, 0, 0, 1, 0, -15, 0, 25, 36, -39; 0, 0, 0, 0, 0, 0, 0, 0, 0, 0, 0, -23, 0, 44, 0, 0, 40, 0, 1, 80, -55, -79, 8; 0, 0, 0, 0, 0, 0, 0, 0, 0, 0, 0, 0, 0, -23, 0, 0, 44, 80, 40, -102, -43, -36, -99; 0, 0, 0, 0, 0, 0, 0, 0, 0, 0, 0, 0, 0, 0, 0, 80, -23, -102, 44, -36, 63, -76, -20; -8, 21, 13, -23, 0, 0, 0, 22, 0, 0, 0, 16, 0, -40, 0, 0, 47, 0, -38, 0, 27, -16, -28; 0, 0, 0, 0, 0, 0, 0, 0, 0, 0, 0, 0, 0, 0, 80, -102, 0, -36, -23, -76, 44, -20, 63; 0, 0, 0, 0, 0, 0, 0, 0, 0, 0, 0, 0, 80, 0, -102, -36, 0, -76, 0, -20, -23, 63, 44; 0, 0, 0, 0, 0, 0, 0, 0, 0, 0, 80, 0, -102, 0, -36, -76, 0, -20, 0, 63, 0, 44, -23; -1, 17, 2, 44, -23, 0, 0, 16, 0, 0, 0, -25, 0, 105, 0, 0, -90, 0, 104, 0, 52, 25, 94; 0, 0, 0, 0, 0, 0, 0, 0, 0, 80, -102, 0, -36, 0, -76, -20, 0, 63, 0, 44, 0, -23, 0; 8, 1, -5, 40, 44, -23, 0, -40, 0, 0, 0, 105, 0, -30, 0, 0, 51, 0, 63, 0, -27, -105, -8; 0, 0, 0, 0, 0, 0, 0, 0, 80, -102, -36, 0, -76, 0, -20, 63, 0, 44, 0, -23, 0, 0, 0; 0, 0, 0, 0, 0, 0, 80, 0, -102, -36, -76, 0, -20, 0, 63, 44, 0, -23, 0, 0, 0, 0, 0; 3, -15, -12, 1, 40, 44, -23, 47, 0, 0, 0, -90, 0, 51, 0, 0, 73, 0, 36, 0, 121, 90, -103; 0, 0, 0, 0, 0, 80, -102, 0, -36, -76, -20, 0, 63, 0, 44, -23, 0, 0, 0, 0, 0, 0, 0; -11, 3, 14, -15, 1, 40, 44, -38, -23, 0, 0, 104, 0, 63, 0, 0, 36, 0, 241, 0, -102, -104, 220; 0, 0, 0, 0, 80, -102, -36, 0, -76, -20, 63, 0, 44, 0, -23, 0, 0, 0, 0, 0, 0, 0, 0; -9, -17, -2, 25, -55, -43, 63, 27, 44, -23, 0, 52, 0, -27, 0, 0, 121, 0, -102, 0, 183, -132, 53; 1, -17, -2, 36, -79, -36, -76, -16, -20, 63, 44, 25, -23, -105, 0, 0, 90, 0, -104, 0, -132, -25, -94; -11, 14, 4, -39, 8, -99, -20, -28, 63, 44, -23, 94, 0, -8, 0, 0, -103, 0, 220, 0, 53, -94, 39], [360021951960796641859175699122802869179392315765, 76192367639014284693825626967348141515462847429, 175933673641155123932811378192750916776688518431, 73164289443753770477878189293784614099974541584, 194723411503986828321345270148507129584978971674, 126039141947607801920094409525325815879415505264, 168482928558338848363635084476348649524543059294, 355034465481840328375311049064082128153441429375, 130214971615957807516889614061244656936923089809, 135226062668520491512814730305366877200122517589, 201395776295021364014861844870961828940313570139, 268587132499940681253976198881417127492458245418, 37121415584298833607342736800219008232072741944, 219267978459983716690927412345527462953130625522, 8948772354025967728748148172142647943049357664, 107774000565531979771976919603750241708382739694, 193225175016382915651700385084556025460863610139, 245892225563318545088722475176139707972508979244, 208051476924894638559951648224549640774514920474, 265260810710871433215325686476260265721800594874, 194780075478655080581365906349613894955229026427, 260275762359647460132106926988863083494918838881, 207180200256595308609271167773346860842906113439; 0, 1, 0, 0, 0, 0, 0, 0, 0, 0, 0, 0, 0, 0, 0, 0, 0, 0, 0, 0, 0, 0, 0; 0, 0, 1, 0, 0, 0, 0, 0, 0, 0, 0, 0, 0, 0, 0, 0, 0, 0, 0, 0, 0, 0, 0; 0, 0, 0, 1, 0, 0, 0, 0, 0, 0, 0, 0, 0, 0, 0, 0, 0, 0, 0, 0, 0, 0, 0; 0, 0, 0, 0, 1, 0, 0, 0, 0, 0, 0, 0, 0, 0, 0, 0, 0, 0, 0, 0, 0, 0, 0; 0, 0, 0, 0, 0, 1, 0, 0, 0, 0, 0, 0, 0, 0, 0, 0, 0, 0, 0, 0, 0, 0, 0; 0, 0, 0, 0, 0, 0, 1, 0, 0, 0, 0, 0, 0, 0, 0, 0, 0, 0, 0, 0, 0, 0, 0; 0, 0, 0, 0, 0, 0, 0, 1, 0, 0, 0, 0, 0, 0, 0, 0, 0, 0, 0, 0, 0, 0, 0; 0, 0, 0, 0, 0, 0, 0, 0, 1, 0, 0, 0, 0, 0, 0, 0, 0, 0, 0, 0, 0, 0, 0; 0, 0, 0, 0, 0, 0, 0, 0, 0, 1, 0, 0, 0, 0, 0, 0, 0, 0, 0, 0, 0, 0, 0; 0, 0, 0, 0, 0, 0, 0, 0, 0, 0, 1, 0, 0, 0, 0, 0, 0, 0, 0, 0, 0, 0, 0; 0, 0, 0, 0, 0, 0, 0, 0, 0, 0, 0, 1, 0, 0, 0, 0, 0, 0, 0, 0, 0, 0, 0; 0, 0, 0, 0, 0, 0, 0, 0, 0, 0, 0, 0, 1, 0, 0, 0, 0, 0, 0, 0, 0, 0, 0; 0, 0, 0, 0, 0, 0, 0, 0, 0, 0, 0, 0, 0, 1, 0, 0, 0, 0, 0, 0, 0, 0, 0; 0, 0, 0, 0, 0, 0, 0, 0, 0, 0, 0, 0, 0, 0, 1, 0, 0, 0, 0, 0, 0, 0, 0; 0, 0, 0, 0, 0, 0, 0, 0, 0, 0, 0, 0, 0, 0, 0, 1, 0, 0, 0, 0, 0, 0, 0; 0, 0, 0, 0, 0, 0, 0, 0, 0, 0, 0, 0, 0, 0, 0, 0, 1, 0, 0, 0, 0, 0, 0; 0, 0, 0, 0, 0, 0, 0, 0, 0, 0, 0, 0, 0, 0, 0, 0, 0, 1, 0, 0, 0, 0, 0; 0, 0, 0, 0, 0, 0, 0, 0, 0, 0, 0, 0, 0, 0, 0, 0, 0, 0, 1, 0, 0, 0, 0; 0, 0, 0, 0, 0, 0, 0, 0, 0, 0, 0, 0, 0, 0, 0, 0, 0, 0, 0, 1, 0, 0, 0; 0, 0, 0, 0, 0, 0, 0, 0, 0, 0, 0, 0, 0, 0, 0, 0, 0, 0, 0, 0, 1, 0, 0; 0, 0, 0, 0, 0, 0, 0, 0, 0, 0, 0, 0, 0, 0, 0, 0, 0, 0, 0, 0, 0, 1, 0; 0, 0, 0, 0, 0, 0, 0, 0, 0, 0, 0, 0, 0, 0, 0, 0, 0, 0, 0, 0, 0, 0, 1], [16621821493201760291998779557411565116326109997, 406035414360086102184474528356006966882346174, 2051622520673591287820999434250311499524293561, -2422864977486374839671773033384178309361078457, -1473252341510403606550701672440746280850220201, -604546716094419896587657353314274051975081856, -396364120094540115008552141645681143878678971, 1775523087745487477319444027098643177612211152, -429368366243545389148534488331791472843065846, -121853842982866144895465911652881152005709691, 114558175297837754164604364940151494141387099, 788209474402477289314119839062166813348001781, -87547601705922064587862279817761898808832201, 398629042170229248983584965761741695807456162, -151876986649044990787179679671192714235689361, 99752451633353751230394096322891485141239609, 363124647038147488870425097988128925229478289, 188633500918352361673715372935555172291360219, 210223908460883755476049152508854007160995999, -76914594348420718995285299074545407523905881, 203682816387834437944438965353587437488056399, -10185099930848555060634218194509639276907211, 300628727555952893178853564490483904501968129; 406035414360086102184474528356006966882346174, -261444712297591083385158868055624827042330472, -7721523660946286226156407245779131663609454388, -1207217711407765897191872242845577754325319414, 255327959192715644684419244171780984376792648, 174437936606428888810019058218528802319115693, -287039053775741734217860443187471746184069467, 5311019933172280084841835649532142867908667144, -120228395784236857024428518211297286101299207, 259622019916796158690834654722847813555183713, 11954935437350603142901333846339377333637903, 2443387113372884733069530040268055934417525867, -395076222716260134960693840790562307155207127, 1006005793326720033060541796701905839367128104, 12247737034431624684639168579904369826315293, 140868123384329465571376849132968266985400703, -631161472427452460651438279210604784043994747, -264498540256765014486128249634517621226804157, -490265943485955478476942875705530368363794987, -413587007927588913245079009441721913972754027, -983901761612412886867113301344998016033811237, -210274985685834993460602406225261745418553387, 3876677266020138624665625622291954683503723; 2051622520673591287820999434250311499524293561, -7721523660946286226156407245779131663609454388, 9047321633557567837482377806233554351525993518, 859062921647894727586327229553597021762689414, 1108759464291892533780080822242607849931429937, 17183665861077679435964004909476469900256167, 161864118544538542153715753870158943712829822, 6360155247220502642576087287738811622397692476, 602646676930878425433777390844449919183839787, 23879716103504232305403539607785780102969802, -455932344359325212748273129831668396050047973, 2506735443571960903381884239333887343547486908, 52729932143402949046649621911425156178805212, 942841929111788654663759262544946204917874581, 366893587337977750358286688160434545726503457, -437462398301858732824327762020771229256532428, -1376609975883010290046547165814149043098382643, -518186579898312920378485031662162046683580553, -203189074695220968834273674344492568780119748, 21038274375978356486598585764399388723810332, -1113887995269132062055890635168576923075991473, -188588533779599850004378098183413197582436723, -800992178402110942384206411537636787271964488; -2422864977486374839671773033384178309361078457, -1207217711407765897191872242845577754325319414, 859062921647894727586327229553597021762689414, -1545903456018369811554075215784799269203833028, -260470654543712799407944555420038383450224529, -334649537649944717946483231845626889291264284, -685898345190405077138178153761520997438419384, -340031711970465709959735687095556161609926527, -120131155489640744743920860142094536026030004, 389734264900029431530510248133648318740435191, -359650267718940331301253494150674692540391764, 2912033715002346519767807413383521995985777689, -354900915578912590601440802113718413389685159, 3731779984616749395817823864575333853125687553, 45678968308636224624589292769379586237080036, 206030780049472945584961455421089446511775301, 114622041495318540970497085868364115226405396, -446711100341369608446138366022386178902457584, -1261638834846408597803479930957131108611527129, -740540733703097585884364766946815283075848029, -170432763137072494853277362954678634590310184, 535682289708118716636250563747378600432074396, -1044553636549892279282295263498788744070924339; -1473252341510403606550701672440746280850220201, 255327959192715644684419244171780984376792648, 1108759464291892533780080822242607849931429937, -260470654543712799407944555420038383450224529, -188813565085969567182025015828904793676003902, -1066760605549367442297452519823256073870022852, 304834928647353108310192123705393314556504278, 749916949775393664812238872832724520284341324, 912925837726795451620458659339703121831035038, -782990904657304896484329084556578677218515562, -733028643786720206165158923537076897066488392, -782742599847672598027611168342702893826991133, 568522142390273457538428496839384847057673938, 2065707243224154649603180710640468804759655714, 340959272190065416975165415725078337269060768, -1057058989021928967905732497835378555037975802, 380862260358962365159274366061735076431603468, -923234603377712953376907251053391079139093012, -145835972563975150764458216016722095615260382, 958446232480333780605001745000398762864694338, -1240736935646097906431350963547790112783477972, -1265261674872017269974197570639425222703526172, -1104100419151075445461484514923444446943451642; -604546716094419896587657353314274051975081856, 174437936606428888810019058218528802319115693, 17183665861077679435964004909476469900256167, -334649537649944717946483231845626889291264284, -1066760605549367442297452519823256073870022852, 304834928647353108310192123705393314556504278, 912925837726795451620458659339703121831035038, -149477838269517632118387597115901956249883696, -782990904657304896484329084556578677218515562, -733028643786720206165158923537076897066488392, 568522142390273457538428496839384847057673938, -490819985870704241619112090715065592499136648, 340959272190065416975165415725078337269060768, 482519075024344671946586402296722328876535039, -1057058989021928967905732497835378555037975802, -923234603377712953376907251053391079139093012, -424966084136993853054112983847487850582534282, 958446232480333780605001745000398762864694338, 380862260358962365159274366061735076431603468, -1265261674872017269974197570639425222703526172, -145835972563975150764458216016722095615260382, -1104100419151075445461484514923444446943451642, -1240736935646097906431350963547790112783477972; -396364120094540115008552141645681143878678971, -287039053775741734217860443187471746184069467, 161864118544538542153715753870158943712829822, -685898345190405077138178153761520997438419384, 304834928647353108310192123705393314556504278, 912925837726795451620458659339703121831035038, -782990904657304896484329084556578677218515562, -524724386979179440876585981500823763872447421, -733028643786720206165158923537076897066488392, 568522142390273457538428496839384847057673938, 340959272190065416975165415725078337269060768, -295313810833492782882845813132624051865144078, -1057058989021928967905732497835378555037975802, 613280433280371203842372424208378854444314994, -923234603377712953376907251053391079139093012, 958446232480333780605001745000398762864694338, -523191572826766020089948411206054803090599847, -1265261674872017269974197570639425222703526172, -424966084136993853054112983847487850582534282, -1104100419151075445461484514923444446943451642, 380862260358962365159274366061735076431603468, -1240736935646097906431350963547790112783477972, -145835972563975150764458216016722095615260382; 1775523087745487477319444027098643177612211152, 5311019933172280084841835649532142867908667144, 6360155247220502642576087287738811622397692476, -340031711970465709959735687095556161609926527, 749916949775393664812238872832724520284341324, -149477838269517632118387597115901956249883696, -524724386979179440876585981500823763872447421, 5665477630564230295691437093666215009990346592, 392623060035957586166338088982026370992525099, 429948186305796578662475051412302121109250654, -484194402076093129040156474554747323804402526, 2205531395785727812818506403144972897254707856, -330127256499987769504944679709472885988938226, 467331637042872354247638958563480743883081152, 463565674396987583607526977018420941688521234, 175475158489998526101186473536201432523689764, 690445233258664168666312585102711325730154124, -746816245245987816437620669520514374984079716, -331159549337110215993143038149138751850636796, -43499718498675193629351328264879337639184336, -661389531273868557393609033676297714726387036, 346276507035426840252810114762534952759493224, -332827799024266901132277349397982050271174196; -429368366243545389148534488331791472843065846, -120228395784236857024428518211297286101299207, 602646676930878425433777390844449919183839787, -120131155489640744743920860142094536026030004, 912925837726795451620458659339703121831035038, -782990904657304896484329084556578677218515562, -733028643786720206165158923537076897066488392, 392623060035957586166338088982026370992525099, 568522142390273457538428496839384847057673938, 340959272190065416975165415725078337269060768, -1057058989021928967905732497835378555037975802, -143862126620217075717311615439088687440843953, -923234603377712953376907251053391079139093012, 945423124812605123548505150415166060918333894, 958446232480333780605001745000398762864694338, -1265261674872017269974197570639425222703526172, 423340636938364565183075590405903984678123798, -1104100419151075445461484514923444446943451642, -523191572826766020089948411206054803090599847, -1240736935646097906431350963547790112783477972, -424966084136993853054112983847487850582534282, -145835972563975150764458216016722095615260382, 380862260358962365159274366061735076431603468; -121853842982866144895465911652881152005709691, 259622019916796158690834654722847813555183713, 23879716103504232305403539607785780102969802, 389734264900029431530510248133648318740435191, -782990904657304896484329084556578677218515562, -733028643786720206165158923537076897066488392, 568522142390273457538428496839384847057673938, 429948186305796578662475051412302121109250654, 340959272190065416975165415725078337269060768, -1057058989021928967905732497835378555037975802, -923234603377712953376907251053391079139093012, -32343024101036266887774894865461479590009183, 958446232480333780605001745000398762864694338, 1973845943758075047146600577633408174416429, -1265261674872017269974197570639425222703526172, -1104100419151075445461484514923444446943451642, 378127728207807615563718121423358483676803233, -1240736935646097906431350963547790112783477972, 423340636938364565183075590405903984678123798, -145835972563975150764458216016722095615260382, -523191572826766020089948411206054803090599847, 380862260358962365159274366061735076431603468, -424966084136993853054112983847487850582534282; 114558175297837754164604364940151494141387099, 11954935437350603142901333846339377333637903, -455932344359325212748273129831668396050047973, -359650267718940331301253494150674692540391764, -733028643786720206165158923537076897066488392, 568522142390273457538428496839384847057673938, 340959272190065416975165415725078337269060768, -484194402076093129040156474554747323804402526, -1057058989021928967905732497835378555037975802, -923234603377712953376907251053391079139093012, 958446232480333780605001745000398762864694338, -93243386520969441427473359793752681981349193, -1265261674872017269974197570639425222703526172, -413205284459998632047049260927196556021612651, -1104100419151075445461484514923444446943451642, -1240736935646097906431350963547790112783477972, -522843174081637232913839204070005260820593902, -145835972563975150764458216016722095615260382, 378127728207807615563718121423358483676803233, 380862260358962365159274366061735076431603468, 423340636938364565183075590405903984678123798, -424966084136993853054112983847487850582534282, -523191572826766020089948411206054803090599847; 788209474402477289314119839062166813348001781, 2443387113372884733069530040268055934417525867, 2506735443571960903381884239333887343547486908, 2912033715002346519767807413383521995985777689, -782742599847672598027611168342702893826991133, -490819985870704241619112090715065592499136648, -295313810833492782882845813132624051865144078, 2205531395785727812818506403144972897254707856, -143862126620217075717311615439088687440843953, -32343024101036266887774894865461479590009183, -93243386520969441427473359793752681981349193, 347344482807408936902346563808116196570770098, -60853765137728563857080884148843339126278728, 867232319016753601342985877443160220256764561, 48000471707819846058773441713885597687865007, -59277499684649649306312227051584319132072668, -352061448537420907365272005558479747678685953, 40546666349406054710982513232212541766404297, 272278124740134393214598118292468097626754422, -136468356565428456978026537707521998848561498, -112119760702141910440375042257345571638572363, 139194151175940173863191155841696458424060647, -76487435736788223715941066490485209673126718; -87547601705922064587862279817761898808832201, -395076222716260134960693840790562307155207127, 52729932143402949046649621911425156178805212, -354900915578912590601440802113718413389685159, 568522142390273457538428496839384847057673938, 340959272190065416975165415725078337269060768, -1057058989021928967905732497835378555037975802, -330127256499987769504944679709472885988938226, -923234603377712953376907251053391079139093012, 958446232480333780605001745000398762864694338, -1265261674872017269974197570639425222703526172, -60853765137728563857080884148843339126278728, -1104100419151075445461484514923444446943451642, 331722697616024411626639624053735168601185089, -1240736935646097906431350963547790112783477972, -145835972563975150764458216016722095615260382, -134928492140592471390203960303988890757285467, 380862260358962365159274366061735076431603468, -522843174081637232913839204070005260820593902, -424966084136993853054112983847487850582534282, 378127728207807615563718121423358483676803233, -523191572826766020089948411206054803090599847, 423340636938364565183075590405903984678123798; 398629042170229248983584965761741695807456162, 1006005793326720033060541796701905839367128104, 942841929111788654663759262544946204917874581, 3731779984616749395817823864575333853125687553, 2065707243224154649603180710640468804759655714, 482519075024344671946586402296722328876535039, 613280433280371203842372424208378854444314994, 467331637042872354247638958563480743883081152, 945423124812605123548505150415166060918333894, 1973845943758075047146600577633408174416429, -413205284459998632047049260927196556021612651, 867232319016753601342985877443160220256764561, 331722697616024411626639624053735168601185089, -866038243705474234696968769954563227378045718, 462337807689037456232867527057211463964321119, -375340165230544719124302148692018386990258791, 51570086418009402522695811151831618994152589, -437405227892457264870030348474942802808875901, 310644182070073153528376138995674590794047579, 563389840431043287624821717302217802586998199, -259181305411403591208483550597061005736371701, -1539864424835985587822577403533108091276031, -471153737504619185596402975971295917711457571; -151876986649044990787179679671192714235689361, 12247737034431624684639168579904369826315293, 366893587337977750358286688160434545726503457, 45678968308636224624589292769379586237080036, 340959272190065416975165415725078337269060768, -1057058989021928967905732497835378555037975802, -923234603377712953376907251053391079139093012, 463565674396987583607526977018420941688521234, 958446232480333780605001745000398762864694338, -1265261674872017269974197570639425222703526172, -1104100419151075445461484514923444446943451642, 48000471707819846058773441713885597687865007, -1240736935646097906431350963547790112783477972, 462337807689037456232867527057211463964321119, -145835972563975150764458216016722095615260382, 380862260358962365159274366061735076431603468, 610347888680559359459594131812992376135518218, -424966084136993853054112983847487850582534282, -134928492140592471390203960303988890757285467, -523191572826766020089948411206054803090599847, -522843174081637232913839204070005260820593902, 423340636938364565183075590405903984678123798, 378127728207807615563718121423358483676803233; 99752451633353751230394096322891485141239609, 140868123384329465571376849132968266985400703, -437462398301858732824327762020771229256532428, 206030780049472945584961455421089446511775301, -1057058989021928967905732497835378555037975802, -923234603377712953376907251053391079139093012, 958446232480333780605001745000398762864694338, 175475158489998526101186473536201432523689764, -1265261674872017269974197570639425222703526172, -1104100419151075445461484514923444446943451642, -1240736935646097906431350963547790112783477972, -59277499684649649306312227051584319132072668, -145835972563975150764458216016722095615260382, -375340165230544719124302148692018386990258791, 380862260358962365159274366061735076431603468, -424966084136993853054112983847487850582534282, 182693869674615367492542484106575796063244983, -523191572826766020089948411206054803090599847, 610347888680559359459594131812992376135518218, 423340636938364565183075590405903984678123798, -134928492140592471390203960303988890757285467, 378127728207807615563718121423358483676803233, -522843174081637232913839204070005260820593902; 363124647038147488870425097988128925229478289, -631161472427452460651438279210604784043994747, -1376609975883010290046547165814149043098382643, 114622041495318540970497085868364115226405396, 380862260358962365159274366061735076431603468, -424966084136993853054112983847487850582534282, -523191572826766020089948411206054803090599847, 690445233258664168666312585102711325730154124, 423340636938364565183075590405903984678123798, 378127728207807615563718121423358483676803233, -522843174081637232913839204070005260820593902, -352061448537420907365272005558479747678685953, -134928492140592471390203960303988890757285467, 51570086418009402522695811151831618994152589, 610347888680559359459594131812992376135518218, 182693869674615367492542484106575796063244983, 1483867952943059104499409625440185618160805658, -422763942772215063968751181253020162432619942, 874292489724413658719496941103000289421322433, 220708038322124990691902307140636478632601833, 260458014059293691734955301885086210841665778, 933667656014002950608207151968765812353141458, -20901899200310691372128967409340995828049157; 188633500918352361673715372935555172291360219, -264498540256765014486128249634517621226804157, -518186579898312920378485031662162046683580553, -446711100341369608446138366022386178902457584, -923234603377712953376907251053391079139093012, 958446232480333780605001745000398762864694338, -1265261674872017269974197570639425222703526172, -746816245245987816437620669520514374984079716, -1104100419151075445461484514923444446943451642, -1240736935646097906431350963547790112783477972, -145835972563975150764458216016722095615260382, 40546666349406054710982513232212541766404297, 380862260358962365159274366061735076431603468, -437405227892457264870030348474942802808875901, -424966084136993853054112983847487850582534282, -523191572826766020089948411206054803090599847, -422763942772215063968751181253020162432619942, 423340636938364565183075590405903984678123798, 182693869674615367492542484106575796063244983, 378127728207807615563718121423358483676803233, 610347888680559359459594131812992376135518218, -522843174081637232913839204070005260820593902, -134928492140592471390203960303988890757285467; 210223908460883755476049152508854007160995999, -490265943485955478476942875705530368363794987, -203189074695220968834273674344492568780119748, -1261638834846408597803479930957131108611527129, -145835972563975150764458216016722095615260382, 380862260358962365159274366061735076431603468, -424966084136993853054112983847487850582534282, -331159549337110215993143038149138751850636796, -523191572826766020089948411206054803090599847, 423340636938364565183075590405903984678123798, 378127728207807615563718121423358483676803233, 272278124740134393214598118292468097626754422, -522843174081637232913839204070005260820593902, 310644182070073153528376138995674590794047579, -134928492140592471390203960303988890757285467, 610347888680559359459594131812992376135518218, 874292489724413658719496941103000289421322433, 182693869674615367492542484106575796063244983, 260458014059293691734955301885086210841665778, -422763942772215063968751181253020162432619942, -20901899200310691372128967409340995828049157, 220708038322124990691902307140636478632601833, 933667656014002950608207151968765812353141458; -76914594348420718995285299074545407523905881, -413587007927588913245079009441721913972754027, 21038274375978356486598585764399388723810332, -740540733703097585884364766946815283075848029, 958446232480333780605001745000398762864694338, -1265261674872017269974197570639425222703526172, -1104100419151075445461484514923444446943451642, -43499718498675193629351328264879337639184336, -1240736935646097906431350963547790112783477972, -145835972563975150764458216016722095615260382, 380862260358962365159274366061735076431603468, -136468356565428456978026537707521998848561498, -424966084136993853054112983847487850582534282, 563389840431043287624821717302217802586998199, -523191572826766020089948411206054803090599847, 423340636938364565183075590405903984678123798, 220708038322124990691902307140636478632601833, 378127728207807615563718121423358483676803233, -422763942772215063968751181253020162432619942, -522843174081637232913839204070005260820593902, 182693869674615367492542484106575796063244983, -134928492140592471390203960303988890757285467, 610347888680559359459594131812992376135518218; 203682816387834437944438965353587437488056399, -983901761612412886867113301344998016033811237, -1113887995269132062055890635168576923075991473, -170432763137072494853277362954678634590310184, -1240736935646097906431350963547790112783477972, -145835972563975150764458216016722095615260382, 380862260358962365159274366061735076431603468, -661389531273868557393609033676297714726387036, -424966084136993853054112983847487850582534282, -523191572826766020089948411206054803090599847, 423340636938364565183075590405903984678123798, -112119760702141910440375042257345571638572363, 378127728207807615563718121423358483676803233, -259181305411403591208483550597061005736371701, -522843174081637232913839204070005260820593902, -134928492140592471390203960303988890757285467, 260458014059293691734955301885086210841665778, 610347888680559359459594131812992376135518218, -20901899200310691372128967409340995828049157, 182693869674615367492542484106575796063244983, 933667656014002950608207151968765812353141458, -422763942772215063968751181253020162432619942, 220708038322124990691902307140636478632601833; -10185099930848555060634218194509639276907211, -210274985685834993460602406225261745418553387, -188588533779599850004378098183413197582436723, 535682289708118716636250563747378600432074396, -1265261674872017269974197570639425222703526172, -1104100419151075445461484514923444446943451642, -1240736935646097906431350963547790112783477972, 346276507035426840252810114762534952759493224, -145835972563975150764458216016722095615260382, 380862260358962365159274366061735076431603468, -424966084136993853054112983847487850582534282, 139194151175940173863191155841696458424060647, -523191572826766020089948411206054803090599847, -1539864424835985587822577403533108091276031, 423340636938364565183075590405903984678123798, 378127728207807615563718121423358483676803233, 933667656014002950608207151968765812353141458, -522843174081637232913839204070005260820593902, 220708038322124990691902307140636478632601833, -134928492140592471390203960303988890757285467, -422763942772215063968751181253020162432619942, 610347888680559359459594131812992376135518218, 182693869674615367492542484106575796063244983; 300628727555952893178853564490483904501968129, 3876677266020138624665625622291954683503723, -800992178402110942384206411537636787271964488, -1044553636549892279282295263498788744070924339, -1104100419151075445461484514923444446943451642, -1240736935646097906431350963547790112783477972, -145835972563975150764458216016722095615260382, -332827799024266901132277349397982050271174196, 380862260358962365159274366061735076431603468, -424966084136993853054112983847487850582534282, -523191572826766020089948411206054803090599847, -76487435736788223715941066490485209673126718, 423340636938364565183075590405903984678123798, -471153737504619185596402975971295917711457571, 378127728207807615563718121423358483676803233, -522843174081637232913839204070005260820593902, -20901899200310691372128967409340995828049157, -134928492140592471390203960303988890757285467, 933667656014002950608207151968765812353141458, 610347888680559359459594131812992376135518218, 220708038322124990691902307140636478632601833, 182693869674615367492542484106575796063244983, -422763942772215063968751181253020162432619942], [360021951960796641859175699122802869179392315765, [174879360687100824537050029968909742234946865223, -221291060041251693151206460565325670330420746652, -328907048628761740548792192627291583221033226423, -26925244804723178658267757252154830001240019797, -364362668998512727965781360876211717209533365267, 1115963399954531715214774954200246547129372536143, -79411490028481780134277596268182632738354560857, -178162959101435455243108093301916189593843147625, -80816513438360816344698759419969214988259575522, -722616599945464185973375815292492960691567524617, 442528092296533751909144945539006856827766510448, 428516259131131513036500176531139138247559309326, 2624447747287699238581146112284488521474920029508, 1918033590010420430924714824548656387984780549189, 193499747519438639714704307618076835495379859738, -564042166712993260847002239766408035219907066162, 993285501837755493391376348242317235994954424618, -1307778625291472221410061676492431935126937055377, 1960021818701567241277260166333193784127588366173, 132485925841502623788359942456472338564903974373, 849662745937736545837125682899509250120769356769, -1130791519094815168556856660945183211915937544178, 3651090519330968449950695897029232374129478493143; 86604098443706474249651179337918009032507311591, 3933173524902014088103301834879566484209233181, -2246866656613404880649118111147336965250375366, -321032366043392532390192211790728445591646417654, 46239044639030591819610432041629784098734521786, -453468841816308256809786162883159315288483861929, 1315166831345893287612747553019356977108762582991, -311960283793495391638306750449141780184441743970, -76227101926952745308472940766129722808224845654, 175437600125204793092285264166601257828079019551, -418907608718604846096926000510777433966901947734, 655879816094285718715469615414996360763405977287, 414116888246716281581720705348410473525610854631, -131564651131039602546073016173317633591999713607, 2796795225540518563701303579390074406907115289041, 43822344207689329599138601538378443199350471776, 372188202430455459956966449331368843122696899896, -419146750563162447467682583362438785279451584524, -455122431948712225320616571096624561844162143669, -1412959579334924350451766752266952448390771034234, 2835392165622294144744840708438700693818591031433, -150359078976379681939807066878513514768318668346, -918288194517644389541793662020421298617235150564; 68818295208552751529253603986308995718710717794, -261867633354465322112942737878854609206502029936, -118281706779400496190965465141307701994425500624, 237216388215464510516759877266004503064845896754, -551310356758039950833335888216813456203200065191, 50038739269212030273784200608985617539917578779, 6735797298752008925338510549540312164329680084, -749171468177727625493104593166057302291307732370, 417081035491231425164802120271534954226787618409, 106503986684039391721337828517835994362395280894, -1089812564335810528369500549212919491007260579751, -960686283856402823415902012083652211245093274272, 274895664878842435210903768825446718069823010184, -1325861811404678085781087965603709465959151363238, 436732190392029088915191099890799256744745681794, 659150361931433963408091300188568375288719243334, -2790846126982554395908610765996617084510264009896, -248744701115659044513319033705416052249979828681, -2585254498077309206184295397594679770974940343621, 437591041583685220550107080414144345699360441654, -2377757772362951430701961285924720864283458525018, -279580763420580409593705936180039517624761528959, -189776491522406430998961154400117618088776955171; -89327137069716309282514308283509348945112076443, 191181009062005142332268272375325527371407547232, -285075913559676907219399952080693336957620968562, -67271707635155957121857675073747834005302727858, -570130329128301426800881779277263976468309477668, 135345217456826120663615234048577382177685018447, -576479905568655544513933134734921603752411061348, 326480637581308744625047236587820921254166311855, 1385146732688118023264821086811088681278607409372, -497779755947328168283287393326995935218976784818, -2232249154046744864070141089788453017171052068, -122661716040945780325450908445449443791308727001, -222013476110448527405866675843832401140203232623, 70213952691737504052353666512082847908962923856, 371984381609854763978452852304069245030338684907, 3081698691520788365329684015775139676403267194592, 392129459594601452092183955592654067111511045657, -259699247607916761624494909117431846980183755488, 1755403648664293556178275169872033914270123809732, -276844380935411484818634770787699263783544863723, -109290915262182619994224132241729652592379450964, -1654383902216356015384870301729370864086596284137, 181514098203712509921381798508606377966427683707; 114129726397478096770453223946663161206883336521, -265260810710871433215325686476260265721800594874, 107774000565531979771976919603750241708382739694, 191181009062005142332268272375325527371407547231, 8920660003858327571967951893600307510160119571, -496966039684547656323003589983479362368334936084, -29953322999983692874215194925718357416728325644, -98825228211506012043228771431607593765333382030, -450440763621047742593838725209595787872995556084, 1553629661246456871628456171287437330803150468666, -367564784331370360766397779265751278282053695009, -88550129689285081622130479147816529362408713078, 132993813514473746648744589215578424182951465521, -250766551542424880516495624196564352589322944842, -380639651776223805250180530095673441379281978249, 409105797194153597585795589104288253262411426851, 751270394107876792974059571288621448644317859521, 3090647463874814333058432163947282324346316552256, -307556293541334278847596124243250957177682364369, -151925247042384781852517989513681605271801015794, -573965361145281349821797190058570882422418027497, -302423977643604499966957515586545895628019487166, -1562307856143763368194761761202679478770211836209; -107774000565531979771976919603750241708382739694, 114129726397478096770453223946663161206883336521, 8948772354025967728748148172142647943049357664, -265260810710871433215325686476260265721800594874, 191181009062005142332268272375325527371407547231, 8920660003858327571967951893600307510160119571, -496966039684547656323003589983479362368334936084, 28172643230272865878594588628076360289023384280, -29953322999983692874215194925718357416728325644, -450440763621047742593838725209595787872995556084, 1553629661246456871628456171287437330803150468666, -241817779188398912787747476024421704646273587178, -367564784331370360766397779265751278282053695009, 378235582831473379986756965208610941214134524953, 132993813514473746648744589215578424182951465521, -380639651776223805250180530095673441379281978249, 71834243567015251138182786179672469751001567026, 409105797194153597585795589104288253262411426851, 4400003102223140225976195697508234106173402351, 3090647463874814333058432163947282324346316552256, -668735092408135612571654377339318508629987255887, 89892532146014130935229486510740099374472571384, 84760377541894847748547597794207693529164395451; -8948772354025967728748148172142647943049357664, -107774000565531979771976919603750241708382739694, 37121415584298833607342736800219008232072741944, 114129726397478096770453223946663161206883336521, -265260810710871433215325686476260265721800594874, 191181009062005142332268272375325527371407547231, 8920660003858327571967951893600307510160119571, -195747591250074111451656591052060048471151487570, -496966039684547656323003589983479362368334936084, -29953322999983692874215194925718357416728325644, -450440763621047742593838725209595787872995556084, 415356998415772213594099702008829949446207266897, 1553629661246456871628456171287437330803150468666, 177015197610467380179887861954192983014835545883, -367564784331370360766397779265751278282053695009, 132993813514473746648744589215578424182951465521, -217503723860786936316453947852905168809092673864, -380639651776223805250180530095673441379281978249, -719859289924240831999749465061166783104879562934, 409105797194153597585795589104288253262411426851, -146926970706695992336903126681930126899368264787, 2675290465459042119464332461938452374900109285359, 304029145340780344722460085265152090621380859211; -130616361266546118024516937389298341786843387612, 44512872977747318768893715906904324586970755153, -405787035362122171349214115798044212561727083238, -9974828696708439703506228969187305013049477987, 205090800442322887143052502139300235844999611073, 28965161840549250162725705895541375892346171698, 117548003656382319123144090528565099152585009323, -576848156501263578847347647368164026923534178315, 72172847876932799706887640259918682972596672243, 48020071357559868056148321815908364030882945258, 645424991012446456679869503326342425680108375998, -451022914232269991281224447997119117035984480134, 403474912049552849479513266765195874784850523213, 161217486833487715288292193413196511028987430289, 8948359901368085143890669217521038307574740788, -253586854182800813131020243054211398096759927417, -620371593137126608996795070588038208733993809372, -20867232380398207482682439790310638085613659612, -1142772663113179655026021577475552104342331000402, -360772411273013240390525836152178406245301609682, -77524636203952357851393191724568276324688735446, 1068683956193001695403404104929775678812820128702, 96631254113532737310934871425973572745890658183; -37121415584298833607342736800219008232072741944, -8948772354025967728748148172142647943049357664, -158626175665775277844313854251841040239078745626, -107774000565531979771976919603750241708382739694, 114129726397478096770453223946663161206883336521, -265260810710871433215325686476260265721800594874, 191181009062005142332268272375325527371407547231, 293852238334295769357128584557207917439201263215, 8920660003858327571967951893600307510160119571, -496966039684547656323003589983479362368334936084, -29953322999983692874215194925718357416728325644, 18389021944692102335574007702351942775756800257, -450440763621047742593838725209595787872995556084, -362399140010617749695773604256874418749548155502, 1553629661246456871628456171287437330803150468666, -367564784331370360766397779265751278282053695009, -621034061712734819956520693629559189339546180904, 132993813514473746648744589215578424182951465521, -553822559985610923106537361243982424681111829394, -380639651776223805250180530095673441379281978249, 371428887460263210034386573797312191308440090898, 390716775249461495250221581401936310486654626594, 2154265149782649091924245003429736915911482384231; 158626175665775277844313854251841040239078745626, -37121415584298833607342736800219008232072741944, 135226062668520491512814730305366877200122517589, -8948772354025967728748148172142647943049357664, -107774000565531979771976919603750241708382739694, 114129726397478096770453223946663161206883336521, -265260810710871433215325686476260265721800594874, -5011091052562683995925116244122220263199427780, 191181009062005142332268272375325527371407547231, 8920660003858327571967951893600307510160119571, -496966039684547656323003589983479362368334936084, -227173077342097258182958873951507541549425637913, -29953322999983692874215194925718357416728325644, -471356658400985509840954987549860797043516792942, -450440763621047742593838725209595787872995556084, 1553629661246456871628456171287437330803150468666, -581995203215883788985131949872058784970135213674, -367564784331370360766397779265751278282053695009, -72475708837733788065730603050931970243336924149, 132993813514473746648744589215578424182951465521, 1491098581433052754364456456755836498076664033603, -153466574434126547067221656144165899829856340336, 54586179516996476922081324157442390643260351241; -135226062668520491512814730305366877200122517589, 158626175665775277844313854251841040239078745626, 130214971615957807516889614061244656936923089809, -37121415584298833607342736800219008232072741944, -8948772354025967728748148172142647943049357664, -107774000565531979771976919603750241708382739694, 114129726397478096770453223946663161206883336521, 38267956942381040846745470415103992587619969485, -265260810710871433215325686476260265721800594874, 191181009062005142332268272375325527371407547231, 8920660003858327571967951893600307510160119571, -341141686785027702324065373488616140106593703133, -496966039684547656323003589983479362368334936084, -754342681468703114105289416977644670402330473207, -29953322999983692874215194925718357416728325644, -450440763621047742593838725209595787872995556084, 123271882412340323385925988001128078227814563421, 1553629661246456871628456171287437330803150468666, 858022099226281480047308505667293836668207292541, -367564784331370360766397779265751278282053695009, -330514891090730993371991301047671361500176147322, 474135500299501448972809962704194564289545168654, -777594284286871853655621459060565913295263723734; 44512872977747318768893715906904324586970755154, -86167196335722724397331855936535446528512325416, -45317312374609005908294440803452574989845130819, 131926510998569116665174312845515621745025069489, 194263702297359063700556134869837115486759515789, -8491138291225482796950318996760716726830495941, -96310080681406048656747444216429966551946387051, -531415910149711975889866403128621813322619584460, -82194900258397939460741292245336292906040144551, 510198928343925965167054773020975548479985858409, 562101087715328127323827121017036915023929268839, 149779289015965076941724730404770454717675903423, -28173055682930748463452067582697969924498001156, 95518094630665105236237954578200501752004293347, -262535626536826780859768391226354046039809285081, -128641232945930187254659359394060879793996399306, 468605453741155999223790673809929001547409001514, -246642684875535143620072612205515245038418273161, 197155084145912919548380433679729128429647984309, 352400231249860270906853970456396296055035053694, -578030086583929882971166665334012795251035353423, 80925040282519733239749866821958190783711472251, -54178229733773679398525787808337592659911721611; -130214971615957807516889614061244656936923089809, -135226062668520491512814730305366877200122517589, 168482928558338848363635084476348649524543059294, 158626175665775277844313854251841040239078745626, -37121415584298833607342736800219008232072741944, -8948772354025967728748148172142647943049357664, -107774000565531979771976919603750241708382739694, -42443786610731046443540674951022833645127554030, 114129726397478096770453223946663161206883336521, -265260810710871433215325686476260265721800594874, 191181009062005142332268272375325527371407547231, -585859752910364265741654332501296020877787413913, 8920660003858327571967951893600307510160119571, 151683086462157793713350228191724461529970219238, -496966039684547656323003589983479362368334936084, -29953322999983692874215194925718357416728325644, 564169860891985710690179921110085919229006029326, -450440763621047742593838725209595787872995556084, -47470291654533184902348725179817258677735610734, 1553629661246456871628456171287437330803150468666, -831992251153783068226050876315827545912699231932, 218294968578993904975256553235544742595733718904, 794301515319998091049795275372267675344058447186; -13002906891968953919453666642750832428537783832, -33372029458240696872656116128780117849388274602, -120705240616761603462719342874252466102433602583, 320302844244966865620650544395162931366175021053, 159991790267113365566684765479587932797712563353, 33904890934551758860142169844814690384976702758, 53031162410122552052073438060030584294082373038, 75387928242152597554424902070799891112588471765, 351572752678150687322740918769134508240907112783, 599222503299626960931169857817255923256002010783, -19224283328904780734703919410555321981448643492, -189459683517186242586041241258165855453652332629, -154761625971294801087791471622603804331426545387, 14175441270462645433343142956751371904881629419, -242770959343408284025112583340724041000879735827, 18618125835336289595253074270745020683382321713, -619205561590663527751011849724211374144055939177, 161219222187855128574585698081070768683627506463, 234318068230317560624461748252839695800322278918, 221783669294626482609506645333128337991227256103, 284217047568023440573550201354947426810311693799, 140460986414548468969897283240294784654112686087, -332234920233768221587954235616218429852186075302; -168482928558338848363635084476348649524543059294, -130214971615957807516889614061244656936923089809, 126039141947607801920094409525325815879415505264, -135226062668520491512814730305366877200122517589, 158626175665775277844313854251841040239078745626, -37121415584298833607342736800219008232072741944, -8948772354025967728748148172142647943049357664, -291337682404417615457924838499621555473828849355, -107774000565531979771976919603750241708382739694, 114129726397478096770453223946663161206883336521, -265260810710871433215325686476260265721800594874, 277722228409765595633444637717050277409385724502, 191181009062005142332268272375325527371407547231, 260460869665126370813730106328370392504340452443, 8920660003858327571967951893600307510160119571, -496966039684547656323003589983479362368334936084, -42459200601970500906423608935695038414536182954, -29953322999983692874215194925718357416728325644, -286866063875273617647912506210290297289864528599, -450440763621047742593838725209595787872995556084, 936918722191608378765160743921487382162312537348, 1275907432836691275995011533570387053393764744164, 604794980191728077709081069089240950979489676611; -126039141947607801920094409525325815879415505264, -168482928558338848363635084476348649524543059294, -165298540456809813537830428974295739594413344091, -130214971615957807516889614061244656936923089809, -135226062668520491512814730305366877200122517589, 158626175665775277844313854251841040239078745626, -37121415584298833607342736800219008232072741944, 238462829900563584015708618268080353694387885675, -8948772354025967728748148172142647943049357664, -107774000565531979771976919603750241708382739694, 114129726397478096770453223946663161206883336521, 95162329208316557275899677354074652909927108352, -265260810710871433215325686476260265721800594874, -298713314165536110343407632522265511230874778027, 191181009062005142332268272375325527371407547231, 8920660003858327571967951893600307510160119571, -325134020817654658494657976625394289877484498084, -496966039684547656323003589983479362368334936084, 337680804900741963371107952119559254136901897641, -29953322999983692874215194925718357416728325644, 632315680931982312454730993945277616734798320038, -545603092829364299869738402563670440782922664436, 811895578214345352113773472073825802568476622046; 66369276543900142366329635096622657411837396401, 170946187162198810448946728134030175750737632041, -333876953911384980462304439684030260098888366641, 175933673641155123932811378192750916776688518431, 1, -76192367639014284693825626967348141515462847429, -73164289443753770477878189293784614099974541584, -200077424052630699748502644613625955942808782815, 165298540456809813537830428974295739594413344091, -126039141947607801920094409525325815879415505264, -168482928558338848363635084476348649524543059294, 785275979847323401698043364561207023930974139652, -130214971615957807516889614061244656936923089809, 965928058609750577888574031213951163497812241368, -135226062668520491512814730305366877200122517589, 158626175665775277844313854251841040239078745626, 1035797290402954727297149131424853245291134203901, -37121415584298833607342736800219008232072741944, 1323999980993253749839914651387227685501784202876, -8948772354025967728748148172142647943049357664, 1512208931699586114149268025474090939537915632578, -893049980412855381470020284164957265639356879346, 546012024693189271116591385309557103037890231021; 165298540456809813537830428974295739594413344091, -126039141947607801920094409525325815879415505264, 73164289443753770477878189293784614099974541584, -168482928558338848363635084476348649524543059294, -130214971615957807516889614061244656936923089809, -135226062668520491512814730305366877200122517589, 158626175665775277844313854251841040239078745626, 3028078195260514215947437673563527415488305845, -37121415584298833607342736800219008232072741944, -8948772354025967728748148172142647943049357664, -107774000565531979771976919603750241708382739694, -225549024721782339865529443228480897130900236443, 114129726397478096770453223946663161206883336521, -328318408919183693320462632127447199807614213287, -265260810710871433215325686476260265721800594874, 191181009062005142332268272375325527371407547231, 380124591511473009814648627070582087782029451671, 8920660003858327571967951893600307510160119571, 246946589840594582095256937050370374090235558526, -496966039684547656323003589983479362368334936084, 363750493644343405914968523596669224227064924543, 195595701721798646991314248302762539714171910799, -800757212304794222712322845397333026490562336139; 170946187162198810448946728134030175750737632041, 175933673641155123932811378192750916776688518431, -66369276543900142366329635096622657411837396401, 1, -76192367639014284693825626967348141515462847429, -73164289443753770477878189293784614099974541584, 165298540456809813537830428974295739594413344091, -267507677367484838095974804587407602687050970240, -126039141947607801920094409525325815879415505264, -168482928558338848363635084476348649524543059294, -130214971615957807516889614061244656936923089809, 200168806402654423080131430167026961567916980227, -135226062668520491512814730305366877200122517589, 1119152933758708382160347804245237284029862506293, 158626175665775277844313854251841040239078745626, -37121415584298833607342736800219008232072741944, 723625108424695311589433017924577589309286326536, -8948772354025967728748148172142647943049357664, 1040784776881911040781013781483573986317085090291, -107774000565531979771976919603750241708382739694, 691948876294888152413645059857306782102860328148, -86039080005176326309678206220363800361033643706, 817715060165322691859390924029109130420700456816; -73164289443753770477878189293784614099974541584, 165298540456809813537830428974295739594413344091, 76192367639014284693825626967348141515462847429, -126039141947607801920094409525325815879415505264, -168482928558338848363635084476348649524543059294, -130214971615957807516889614061244656936923089809, -135226062668520491512814730305366877200122517589, -76192367639014284693825626967348141515462847430, 158626175665775277844313854251841040239078745626, -37121415584298833607342736800219008232072741944, -8948772354025967728748148172142647943049357664, -252126041280169408626637005160099058292151365858, -107774000565531979771976919603750241708382739694, 180921160120111437416676028251471657802639404823, 114129726397478096770453223946663161206883336521, -265260810710871433215325686476260265721800594874, 538284272245012197553181775549991929564064407881, 191181009062005142332268272375325527371407547231, 452381092845130279661835094339140374020624117501, 8920660003858327571967951893600307510160119571, -331526447975525684053669416319803340629582387807, -244839998404378247696366584823380304076183570226, 452709229480924369101815903521582339032274163051; 175933673641155123932811378192750916776688518431, 1, -170946187162198810448946728134030175750737632041, -76192367639014284693825626967348141515462847429, -73164289443753770477878189293784614099974541584, 165298540456809813537830428974295739594413344091, -126039141947607801920094409525325815879415505264, 104576910618298668082617093037407518338900235640, -168482928558338848363635084476348649524543059294, -130214971615957807516889614061244656936923089809, -135226062668520491512814730305366877200122517589, -30192213661385885280698441356754769524475941798, 158626175665775277844313854251841040239078745626, 266538082946554565446461065263649618979754376628, -37121415584298833607342736800219008232072741944, -8948772354025967728748148172142647943049357664, 948206746596509571711401076111207108279124874251, -107774000565531979771976919603750241708382739694, 547691434783540187656621639731826672532597808106, 114129726397478096770453223946663161206883336521, 64193487306117085680821239302307501214522827828, -235068597049485547934627245119505496197324653076, -164683866575291705134592589859243640265902094294; -76192367639014284693825626967348141515462847429, -73164289443753770477878189293784614099974541584, -1, 165298540456809813537830428974295739594413344091, -126039141947607801920094409525325815879415505264, -168482928558338848363635084476348649524543059294, -130214971615957807516889614061244656936923089809, -175933673641155123932811378192750916776688518430, -135226062668520491512814730305366877200122517589, 158626175665775277844313854251841040239078745626, -37121415584298833607342736800219008232072741944, 180921160120111437416676028251471657802639404822, -8948772354025967728748148172142647943049357664, 627390445062807726397186577556939527643014904543, -107774000565531979771976919603750241708382739694, 114129726397478096770453223946663161206883336521, 213918262944566695646126476071060020326236231826, -265260810710871433215325686476260265721800594874, 169824855139674240423422751711810371134017011471, 191181009062005142332268272375325527371407547231, 741895538641027672244308111585038737719675510918, -172000500116253109844708076357871350292479285251, 382550446658429478700819992733559223566831334316; 1, -76192367639014284693825626967348141515462847429, -175933673641155123932811378192750916776688518431, -73164289443753770477878189293784614099974541584, 165298540456809813537830428974295739594413344091, -126039141947607801920094409525325815879415505264, -168482928558338848363635084476348649524543059294, 4987486478956313483864650058720741025950886390, -130214971615957807516889614061244656936923089809, -135226062668520491512814730305366877200122517589, 158626175665775277844313854251841040239078745626, 451456771421652602464375199364188610866326386112, -37121415584298833607342736800219008232072741944, 140753973500812925168248286777275406226261690243, -8948772354025967728748148172142647943049357664, -107774000565531979771976919603750241708382739694, 166796776944413726207475314038246843718528705626, 114129726397478096770453223946663161206883336521, 872014378957495287017575449143858966763662026821, -265260810710871433215325686476260265721800594874, 525263828442938203136985491895991843403555605103, -260275762359647460132106926988863083494918838881, -207180200256595308609271167773346860842906113439]], []], [-1.15800811377035, 0.369787353993089, 0.686721415963980, 1.07222032319500 + 0.185907878921617*I, -0.640837558059520 + 0.322181035408136*I, -1.07044971721453 + 0.426089824672027*I, 0.980154259445924 + 0.551851026492816*I, -0.834687261132269 + 0.793570214137507*I, 0.753900167739157 + 0.870436989708265*I, -0.133520251637492 + 0.944473787300151*I, -0.485314793482186 + 1.02477127517688*I, 0.411223117404410 + 1.07579787376295*I, -0.00193861435185354 + 1.10348901391580*I], [1, y, y^22 - 5*y^6 + 6*y^5 + 2*y^4 + 4*y^3 + y^2 - 3*y - 2, y^2, y^3, y^4, y^5, y^22 + y^21 - 5*y^6 + y^5 + 8*y^4 + 6*y^3 + 5*y^2 - 2*y - 5, y^6, y^7, y^8, 2*y^22 + y^20 - 10*y^6 + 12*y^5 - y^4 + 14*y^3 + 4*y^2 - 2*y - 3, y^9, y^22 + y^21 + y^19 - 5*y^6 + y^5 + 8*y^4 + y^3 + 11*y^2 - 1, y^10, y^11, 2*y^22 + y^21 + y^20 + y^18 - 10*y^6 + 7*y^5 + 5*y^4 + 16*y^3 + 3*y^2 + 4*y - 4, y^12, 4*y^22 + 2*y^21 + y^20 + y^19 + y^17 - 20*y^6 + 14*y^5 + 15*y^4 + 21*y^3 + 20*y^2 - 8*y - 5, y^13, 2*y^22 + 2*y^21 + y^20 + y^19 + y^16 - 10*y^6 + 2*y^5 + 11*y^4 + 13*y^3 + 17*y^2 + 2*y - 9, -2*y^22 - y^20 + y^14 + 10*y^6 - 12*y^5 + y^4 - 14*y^3 - 4*y^2 + 2*y + 3, 2*y^22 + y^19 + y^15 - 10*y^6 + 12*y^5 + 4*y^4 + 3*y^3 + 8*y^2 - 4*y - 1], [1, 0, 0, 0, 0, 0, 0, 0, 0, 0, 0, 0, 0, 0, 0, 1, 4, -4, -2, -4, -1, 3, 2; 0, 1, 0, 0, 0, 0, 0, 0, 0, 0, 0, 0, 0, 0, 0, 0, 0, 4, -5, -2, -4, -1, 3; 0, 0, 0, 0, 0, 0, 0, 0, 0, 0, 0, 0, 0, 0, 0, -2, 2, 0, 1, 0, -2, -1, 1; 0, 0, 1, 0, 0, 0, 0, 0, 0, 0, 0, 0, 0, 0, 0, 0, 1, 0, 5, -6, -2, -4, -1; 0, 0, 0, 1, 0, 0, 0, 0, 0, 0, 0, 0, 0, 0, 0, 0, 0, 0, 0, 5, -6, -2, -4; 0, 0, 0, 0, 1, 0, 0, 0, 0, 0, 0, 0, 0, 0, 0, 0, 0, 0, 0, 0, 5, -6, -2; 0, 0, 0, 0, 0, 1, 0, 0, 0, 0, 0, 0, 0, 0, 0, 0, 0, 0, 0, 0, 0, 5, -6; 0, 0, 0, 0, 0, 0, 0, 0, 0, 0, 0, 0, 0, 0, 0, 1, -1, -1, -1, -1, 0, 1, 0; 0, 0, 0, 0, 0, 0, 1, 0, 0, 0, 0, 0, 0, 0, 0, 0, 0, 0, 0, 0, 0, 0, 5; 0, 0, 0, 0, 0, 0, 0, 1, 0, 0, 0, 0, 0, 0, 0, 0, 0, 0, 0, 0, 0, 0, 0; 0, 0, 0, 0, 0, 0, 0, 0, 1, 0, 0, 0, 0, 0, 0, 0, 0, 0, 0, 0, 0, 0, 0; 0, 0, 0, 0, 0, 0, 0, 0, 0, 0, 0, 0, 0, 0, 1, 0, -1, -1, -1, 0, 1, 0, 0; 0, 0, 0, 0, 0, 0, 0, 0, 0, 1, 0, 0, 0, 0, 0, 0, 0, 0, 0, 0, 0, 0, 0; 0, 0, 0, 0, 0, 0, 0, 0, 0, 0, 0, 0, 0, 0, 0, -1, -1, -1, 0, 1, 0, 0, 0; 0, 0, 0, 0, 0, 0, 0, 0, 0, 0, 1, 0, 0, 0, 0, 0, 0, 0, 0, 0, 0, 0, 0; 0, 0, 0, 0, 0, 0, 0, 0, 0, 0, 0, 1, 0, 0, 0, 0, 0, 0, 0, 0, 0, 0, 0; 0, 0, 0, 0, 0, 0, 0, 0, 0, 0, 0, 0, 0, 0, 0, 0, 0, 0, 1, 0, 0, 0, 0; 0, 0, 0, 0, 0, 0, 0, 0, 0, 0, 0, 0, 1, 0, 0, 0, 0, 0, 0, 0, 0, 0, 0; 0, 0, 0, 0, 0, 0, 0, 0, 0, 0, 0, 0, 0, 0, 0, 0, 0, 1, 0, 0, 0, 0, 0; 0, 0, 0, 0, 0, 0, 0, 0, 0, 0, 0, 0, 0, 1, 0, 0, 0, 0, 0, 0, 0, 0, 0; 0, 0, 0, 0, 0, 0, 0, 0, 0, 0, 0, 0, 0, 0, 0, 0, 1, 0, 0, 0, 0, 0, 0; 0, 0, 0, 0, 0, 0, 0, 0, 0, 0, 0, 0, 0, 0, 1, 0, 0, 0, 0, 0, 0, 0, 0; 0, 0, 0, 0, 0, 0, 0, 0, 0, 0, 0, 0, 0, 0, 0, 1, 0, 0, 0, 0, 0, 0, 0], [1, 0, 0, 0, 0, 0, 0, 0, 0, 0, 0, 0, 0, 0, 0, 0, 0, 0, 0, 0, 0, 0, 0, 0, 0, -1, 0, 0, 0, 0, 1, 0, 0, 0, 1, 0, 0, 0, 0, -1, 0, 0, 0, 0, 0, 1, 0, -1, 0, 0, 0, 0, 0, 0, 0, 0, 0, 0, 0, 0, 0, 0, -1, 0, 0, 0, -1, 0, 0, 0, 0, 0, 0, 0, 0, 0, -1, 0, 0, 0, 2, 0, 2, 0, 0, 0, 0, -1, 1, 1, 2, -1, 0, 0, 0, 0, 0, 0, 0, 0, 0, 0, 0, -1, 0, 2, 0, 0, 2, 1, 0, 4, -3, -3, 0, 0, 0, 0, 0, 0, 0, 0, 0, 0, 0, 0, 0, 0, -1, 0, 1, 2, 4, 2, -4, -2, -2, -5, 0, 0, 0, 0, 0, 0, 0, 0, 0, 0, 0, 0, 0, 0, 1, 4, -1, -4, 2, -2, 3, -4, -1, 0, 1, 0, -1, 0, 0, 0, 0, 0, 0, 0, 0, 0, -2, 0, 0, 2, 0, -3, 0, 0, 0, -2, 0, 0, 0, 0, 0, 0, 0, 0, 0, 0, 0, 0, 1, 0, 4, -4, 0, -2, -1, -4, 2, -1, 3, 0, 0, 0, 0, 0, 0, 0, 0, 0, 0, 1, 0, 4, 0, -4, -2, 0, -4, 0, -1, -1, 3, 2, 0, 0, 0, 0, 0, 0, 0, 0, 0, 1, 4, 0, -4, 0, -2, -4, 0, -1, 0, 3, 0, 2, -1, 0, 1, 0, 2, -1, 0, 0, 0, 0, 0, 0, -2, 0, 5, 0, 0, -4, 0, 5, 0, 2, 2, 5, 0, 0, 0, 0, 0, 0, 0, 0, 1, 4, -4, 0, -2, 0, -4, -1, 0, 3, 0, 2, 0, -1, 0, 0, 0, 0, 2, 2, -1, 0, -2, 0, 0, 0, 5, 0, -1, 0, 0, 3, 0, 4, 0, 0, -5, 1, 0, 0, 0, 0, 0, 0, 1, 0, 4, -4, -2, 0, -4, 0, -1, 3, 0, 2, 0, -1, 0, 0, 0, 0, 0, 0, 0, 0, 1, 4, 0, -4, -2, -4, 0, -1, 0, 3, 2, 0, -1, 0, 0, 0, 0, 0, 0, -1, -1, 0, 2, 2, -1, 2, 0, 0, 0, -4, 0, 3, 0, 0, 4, 0, 3, 0, 6, 3, -5, 0, 0, 0, 0, 1, 4, -4, 0, -2, -4, -1, 0, 3, 0, 2, -1, 0, 0, 0, 0, 0, 0, 0, 0, 0, 0, -1, 0, 2, 2, -3, -1, 0, 0, 5, 0, 4, 0, 0, 3, 0, 11, 0, -5, -4, 9, 0, 0, 0, 1, 4, -4, -2, 0, -4, -1, 3, 0, 2, 0, -1, 0, 0, 0, 0, 0, -1, 0, 0, 0, 0, -1, 1, -3, -2, 3, 0, 2, -1, 0, 2, 0, 0, 0, 0, 6, 0, -5, -1, 7, -6, 3, 0, 0, 0, 2, -3, -2, -4, 0, -1, 3, 2, 2, -1, -5, 0, 0, 3, 0, -4, 0, -6, -2, -5, 0, 1, 0, -1, 0, -5, -1, -2, 3, 2, -1, 5, 0, 1, 0, 0, -5, 0, 9, 0, 3, -5, 2; 0, 1, 0, 0, 0, 0, 0, 0, 0, 0, 0, 0, 0, 0, 0, 0, 0, 0, 0, 0, 0, 0, 0, 1, 0, 0, 0, 0, 0, 0, 0, 0, 0, 0, 0, 0, 0, 0, 0, 0, 0, -1, 0, 0, 0, -1, 0, 0, 0, -1, 0, 0, 0, 0, 0, 0, 0, 0, 0, -1, 0, 0, 1, 0, -1, 0, 0, 0, -1, 0, 0, -1, 0, 0, 0, 0, 1, 0, 0, 0, 1, 0, 0, 0, 0, -1, 0, 0, 0, -1, -1, 1, 0, 0, 0, 0, 0, 0, 0, -1, 0, 0, 0, 2, 0, 2, 0, 0, 0, 0, -1, 0, 1, 2, -2, 0, 0, 0, 0, 0, 0, 0, 0, 0, 0, 0, -1, 0, 2, 0, 0, 2, 0, 0, 4, -3, -4, 0, 0, 0, 0, 0, 0, 0, 0, 0, 0, 0, 0, 0, 0, -1, 0, 0, 2, 4, 2, -5, -2, -2, -5, 0, 0, 0, 1, -1, 0, 0, 0, 0, 0, 0, -1, 0, 2, 0, 0, -2, 0, 1, 0, 0, 1, 2, 0, 0, 0, 0, 0, 0, 0, 0, 0, 0, 0, 0, 0, 0, 0, 4, -1, -5, 2, -2, 3, -4, -1, 0, 0, 0, 0, 0, 0, 0, 0, 0, 0, 0, 0, 0, 0, 4, -5, 0, -2, -1, -4, 2, -1, 3, 0, 0, 0, 0, 0, 0, 0, 0, 0, 0, 0, 0, 4, 0, -5, -2, 0, -4, 0, -1, -1, 3, 2, 0, 0, 0, 1, 2, -1, 0, -1, 0, 0, 0, 3, 0, -2, 0, 0, 1, 0, 0, 0, -1, -3, -1, 0, 0, 0, 0, 0, 0, 0, 0, 0, 0, 4, 0, -5, 0, -2, -4, 0, -1, 0, 3, 0, 2, -1, 0, 0, -1, 0, 2, 2, -1, 2, 0, 0, 0, -2, 0, 0, 0, 0, 1, 0, 0, 0, 2, 2, -4, 0, 0, 0, 0, 0, 0, 0, 0, 0, 4, -5, 0, -2, 0, -4, -1, 0, 3, 0, 2, 0, -1, 0, 0, 0, 0, 0, 0, 0, 0, 0, 4, -5, -2, 0, -4, 0, -1, 3, 0, 2, 0, -1, 0, 0, 0, 0, 0, 1, -1, 0, 2, 2, -2, -1, 0, 0, 1, 0, 1, 0, 0, 1, 0, 5, 0, -5, -1, 5, 0, 0, 0, 0, 0, 0, 4, 0, -5, -2, -4, 0, -1, 0, 3, 2, 0, -1, 0, 0, 0, 0, 0, 0, -1, -1, 0, -1, 0, 2, 1, 2, -1, 0, 0, 0, 0, 0, 0, 5, 0, -8, 0, 7, 0, -3, 0, 0, 0, 0, 0, 4, -5, 0, -2, -4, -1, 0, 3, 0, 2, -1, 0, 0, 0, 0, 0, 0, 0, 0, 0, 0, -1, 1, -3, -2, 0, 3, 2, -1, -1, 0, 2, 0, 0, -5, 0, 7, 0, 7, 1, -2, 0, 0, 0, -1, 2, -4, -2, 1, -4, -1, 3, -3, 2, 2, -1, 0, -1, 0, 0, 0, 1, 3, 1, 0, -1, -1, 1, -2, 0, -5, 2, -1, 3, 2, -1, -1, -4, 0, 0, 5, 0, -3, 0, -2, 1, -8; 0, 0, 1, 0, 0, 0, 0, 0, 0, 0, 0, 0, 0, 0, 0, 0, 0, 0, 0, 0, 0, 0, 0, 0, 0, 0, 0, 0, 0, 0, 1, 0, 0, 0, -1, 0, -1, 0, 0, 0, 0, 0, 0, -1, -1, 0, 1, 0, -1, 0, 0, 0, 0, -2, 0, 0, 0, -1, 0, 1, 0, 0, 0, 0, 0, 0, -2, 1, 0, 0, 0, 0, 0, 0, 0, 0, 0, 0, 0, 0, 1, 0, -1, 0, 0, -1, 0, 0, -2, 1, 1, -1, 0, 0, 0, 0, 0, 0, 0, 0, 0, 0, 0, 0, 0, 1, 0, 0, -1, -2, -1, 2, 1, 0, 2, 0, 0, 0, 0, 0, 0, 0, 0, 0, 0, 0, 0, 0, 0, 0, -2, 1, 2, -1, 0, -2, 1, 0, 0, 0, 0, 0, 0, 0, 0, 0, 0, 0, 0, 0, 0, 0, -2, 2, 0, 0, 1, 1, -1, 0, -2, 0, 1, -2, 0, 0, 0, 0, -3, 0, 0, 0, -1, 0, 0, 0, 0, 1, 0, -4, 0, -2, 1, -1, 0, 0, 0, 0, 0, 0, 0, 0, 0, 0, 0, 0, -2, 0, 2, 0, 0, 1, 0, 0, 1, -2, -1, 0, 0, 0, 0, 0, 0, 0, 0, 0, 0, -2, 0, 2, 0, 0, 1, 0, 0, 0, -2, 0, -1, 1, 0, 0, 0, 0, 0, 0, 0, 0, 0, -2, 2, 0, 0, 0, 1, 0, 0, -2, 0, -1, 0, 1, 0, 0, -1, -1, 1, 0, 0, 0, -1, 0, 0, 0, -2, 0, 2, 0, 0, -6, 0, 1, 0, -2, 2, 1, 0, 0, 0, 0, 0, 0, 0, 0, -2, 2, 0, 0, 1, 0, 0, -2, 0, -1, 0, 1, 0, 0, 0, 0, -1, 1, -1, 1, 0, 0, 0, 0, 0, 0, 2, 0, -7, 0, 0, 1, 0, -5, 0, -6, -2, -5, 0, 0, 0, 0, 0, 0, -2, 0, 2, 0, 1, 0, 0, 0, -2, -1, 0, 1, 0, 0, 0, 0, 0, 0, 0, 0, 0, 0, -2, 2, 0, 0, 1, 0, 0, -2, 0, -1, 1, 0, 0, 0, 0, 0, 0, 0, 0, 0, 0, -1, -1, 1, 0, 1, 0, 0, 0, -6, 0, 1, 0, 0, -4, 0, -7, 0, -1, 8, -2, 0, 0, 0, 0, -2, 2, 0, 0, 1, 0, -2, 0, -1, 0, 1, 0, 0, 0, 0, 0, 0, 0, 0, 0, 0, 0, 0, -1, -1, 1, -4, 0, 0, 0, 1, 0, -5, 0, 0, -7, 0, -5, 0, -12, -3, 5, 0, 0, 0, -2, 2, 0, 1, 0, 0, -2, -1, 0, 1, 0, 0, 0, 0, 0, 0, 0, 2, 0, 0, 0, -1, -2, 1, 1, -2, -1, -2, 1, 0, 0, -2, 0, -6, 0, 0, -1, 0, -12, 2, -2, 0, -10, 0, -1, 1, 1, 0, 1, 0, 1, -2, -1, 1, 2, 0, -2, 0, 0, 8, 0, -3, 0, 0, -2, -1, 0, 0, 0, -1, 2, 0, -2, -1, -1, 1, 0, 1, 0, -5, 0, 0, -2, 0, 5, 0, -10, -1, -2; 0, 0, 0, 1, 0, 0, 0, 0, 0, 0, 0, 0, 0, 0, 0, 0, 0, 0, 0, 0, 0, 0, 0, 0, 1, 0, 0, 0, 0, 0, 0, 0, 0, 0, 0, 0, 0, 0, 0, -1, 0, 1, 0, 0, 0, 1, 0, 0, 0, 0, -1, 0, 0, 0, 0, 0, 0, 0, 0, 0, 0, 0, 0, 0, -1, 0, 0, 0, 0, 1, 0, 0, 0, 0, 0, 0, 0, 0, 0, 0, 0, 0, 0, 0, 0, 0, 0, -2, 0, 1, 1, -1, 0, 0, -1, 0, 0, 0, 0, 1, 0, 0, 0, 1, 0, 0, 0, 0, -1, 0, 0, 1, -2, -1, 2, 0, 0, 0, 0, 0, 0, 0, -1, 0, 0, 0, 2, 0, 2, 0, 0, 0, 1, -1, 0, 1, 3, -3, 0, 0, 0, 0, 0, 0, 0, 0, 0, 0, 0, -1, 0, 2, 0, 1, 2, 0, 0, 5, -3, -5, 0, 0, 0, 0, 0, 1, -1, 0, 0, 0, 0, 0, 0, 0, 0, 0, 0, -1, 0, 1, 0, 0, 0, 0, 0, 0, 0, 0, 0, 0, 0, 0, 0, 0, 0, 0, 0, -1, 1, 0, 2, 5, 2, -6, -2, -2, -5, 0, 0, 0, 0, 0, 0, 0, 0, 0, 0, 0, 0, 1, 0, 0, 5, -1, -6, 2, -2, 3, -4, -1, 0, 0, 0, 0, 0, 0, 0, 0, 0, 0, 1, 0, 0, 0, 5, -6, 0, -2, -1, -4, 2, -1, 3, 0, 0, 0, 0, 1, 2, -1, 0, 0, 0, 0, 0, 0, -1, 0, 0, 2, 0, 0, 0, -1, 0, -1, 0, 0, 0, 0, 0, 0, 0, 0, 0, 1, 0, 0, 5, 0, -6, -2, 0, -4, 0, -1, -1, 3, 2, 0, 0, 0, 0, 0, 2, 2, 0, -1, 0, 0, -1, 0, 2, 0, 0, 1, 0, 1, 0, 1, 1, 2, 0, 0, 0, 0, 0, 0, 0, 0, 1, 0, 5, 0, -6, 0, -2, -4, 0, -1, 0, 3, 0, 2, -1, 0, 0, 0, 0, 0, 0, 1, 0, 0, 5, -6, 0, -2, 0, -4, -1, 0, 3, 0, 2, 0, -1, 0, 0, -1, 0, 0, -1, 0, 2, -1, 2, -1, 0, 2, 0, 1, 0, 0, 2, 0, 0, 0, 2, -2, 1, 0, 0, 0, 0, 0, 1, 0, 0, 5, -6, -2, 0, -4, 0, -1, 3, 0, 2, 0, -1, 0, 0, 0, 0, 1, -1, -2, 0, -1, 0, 1, 2, 2, -1, 0, 0, 1, 0, 0, 0, 0, 3, 0, 4, 0, -1, 0, 0, 0, 0, 1, 0, 5, 0, -6, -2, -4, 0, -1, 0, 3, 2, 0, -1, 0, 0, 0, 0, 0, 0, 0, 0, 1, -2, 1, -3, 0, -2, 3, 2, -1, -1, 1, 0, 0, 2, 0, 4, 0, -5, 0, 1, 0, 0, 0, 1, -1, 3, -5, 0, -2, -4, -1, 0, 3, 1, 2, -1, -2, 0, 0, 0, 0, 0, 1, 0, 1, 0, -1, 2, -3, 0, 0, -5, -1, 3, -1, 2, 2, -1, 0, 1, 0, -1, 0, 1, 1, 2; 0, 0, 0, 0, 1, 0, 0, 0, 0, 0, 0, 0, 0, 0, 0, 0, 0, 0, 0, 0, 0, 0, 0, 0, 0, 0, 1, 0, 0, 0, 0, 0, 0, 0, 0, 0, 0, 0, 0, 0, 0, 0, 0, -1, 0, 0, 0, 0, 0, 0, 0, -1, 0, 0, 0, 0, 0, 0, 0, 0, 0, 0, 0, 0, 0, 0, 0, 0, 0, 0, 1, 0, 0, 0, 0, 0, 0, 0, 0, 0, 0, 0, 0, 0, 0, -1, 0, 1, 0, 0, 0, 0, 1, 0, 0, 0, 0, 0, 0, 0, 0, 0, 0, 0, 0, 0, 0, 0, 0, 0, -2, 0, 1, 0, -1, 0, 0, -1, 0, 0, 0, 0, 1, 0, 0, 0, 1, 0, 0, 0, 0, -1, 0, 0, 0, -2, -1, 2, 0, 0, 0, 0, 0, 0, 0, -1, 0, 0, 0, 2, 0, 2, 0, 0, 0, 0, -1, 0, 1, 3, -3, 0, 0, 0, 0, 0, 1, -1, 0, 0, 0, 0, 0, 0, 0, 0, 0, 0, 0, 0, 0, 0, 0, 0, 0, 0, 0, 0, 0, 0, 0, 0, 0, 0, 0, -1, 0, 2, 0, 0, 2, 0, 0, 5, -3, -5, 0, 0, 0, 0, 0, 0, 0, 0, 0, 0, 0, 0, 0, 0, -1, 0, 0, 2, 5, 2, -6, -2, -2, -5, 0, 0, 0, 0, 0, 0, 0, 0, 0, 0, 0, 0, 0, 0, 0, 5, -1, -6, 2, -2, 3, -4, -1, 0, 0, 0, 0, 0, 1, 2, 0, -1, 0, 0, 0, 0, 0, 0, 0, 0, 0, 0, 0, 0, 0, 0, 0, 0, 0, 0, 0, 0, 0, 0, 0, 0, 0, 0, 0, 0, 5, -6, 0, -2, -1, -4, 2, -1, 3, 0, 0, 0, 0, 0, 0, 2, 0, 2, -1, 0, 0, 0, 0, 0, 0, 0, 0, 0, 0, 0, 0, 0, 0, 0, 0, 0, 0, 0, 0, 0, 0, 0, 0, 0, 5, 0, -6, -2, 0, -4, 0, -1, -1, 3, 2, 0, 0, 0, 0, 0, 0, 0, 0, 0, 0, 5, 0, -6, 0, -2, -4, 0, -1, 0, 3, 0, 2, -1, 0, 0, 0, -1, 0, -1, 0, 0, 2, 2, -1, 0, 0, 0, 0, 0, 0, 0, 0, 0, 1, 0, 0, 0, 0, 0, 0, 0, 0, 0, 0, 0, 5, -6, 0, -2, 0, -4, -1, 0, 3, 0, 2, 0, -1, 0, 0, 0, 0, 1, -2, 0, -1, 0, 0, 2, 2, 0, -1, 0, 0, 0, 0, 0, 0, 0, -1, 0, 0, 0, 0, 0, 0, 0, 0, 0, 0, 5, -6, -2, 0, -4, 0, -1, 3, 0, 2, 0, -1, 0, 0, 0, 0, -1, 0, 0, 1, -2, 1, 0, -3, -2, 3, 0, 2, 0, -1, 0, 1, 0, -1, 0, 0, 0, 0, 0, 0, 0, 0, 0, -1, 3, 0, -5, -2, -4, 0, -1, 0, 3, 2, 0, -1, 0, 0, 0, 0, 0, 0, 0, 0, 0, -1, 2, -3, 0, 0, -5, -1, 0, 3, 0, 2, -1, 0, 0, 0, 0, 0, 0, 0; 0, 0, 0, 0, 0, 1, 0, 0, 0, 0, 0, 0, 0, 0, 0, 0, 0, 0, 0, 0, 0, 0, 0, 0, 0, 0, 0, 1, 0, 0, 0, 0, 0, 0, 0, 0, 0, 0, 0, 0, 0, 0, 0, 0, 0, 0, 0, 0, 0, 0, 0, 0, -1, 0, 0, 0, 0, 0, 0, 0, 0, 0, 0, 0, 0, 0, 0, 0, 0, 0, 0, 0, 1, 0, 0, 0, 0, 0, 0, 0, 0, 0, 0, 0, 0, 0, 0, 0, 0, -1, 0, 0, 0, 1, 0, 0, 0, 0, 0, 0, 0, 0, 0, 0, 0, 0, 0, 0, -1, 0, 1, 0, 0, 0, 0, 1, 0, 0, 0, 0, 0, 0, 0, 0, 0, 0, 0, 0, 0, 0, 0, 0, 0, -2, 0, 1, 0, -1, 0, 0, -1, 0, 0, 0, 0, 1, 0, 0, 0, 1, 0, 0, 0, 0, -1, 0, 0, 0, -2, -1, 2, 0, 0, 0, 0, 0, 0, 1, 0, -1, 0, 0, 0, 0, 0, 0, 0, 0, 0, 0, 0, 0, 0, 0, 0, 0, 0, 0, 0, 0, 0, -1, 0, 0, 0, 2, 0, 2, 0, 0, 0, 0, -1, 0, 1, 3, -3, 0, 0, 0, 0, 0, 0, 0, 0, 0, 0, 0, -1, 0, 2, 0, 0, 2, 0, 0, 5, -3, -5, 0, 0, 0, 0, 0, 0, 0, 0, 0, 0, 0, 0, 0, 0, -1, 0, 0, 2, 5, 2, -6, -2, -2, -5, 0, 0, 0, 0, 0, 0, 1, 0, 2, -1, 0, 0, 0, 0, 0, 0, 0, 0, 0, 0, 0, 0, 0, 0, 0, 0, 0, 0, 0, 0, 0, 0, 0, 0, 0, 0, 0, 0, 5, -1, -6, 2, -2, 3, -4, -1, 0, 0, 0, 0, 0, 0, 0, 0, 2, 2, -1, 0, 0, 0, 0, 0, 0, 0, 0, 0, 0, 0, 0, 0, 0, 0, 0, 0, 0, 0, 0, 0, 0, 0, 0, 0, 0, 5, -6, 0, -2, -1, -4, 2, -1, 3, 0, 0, 0, 0, 0, 0, 0, 0, 0, 0, 0, 0, 5, 0, -6, -2, 0, -4, 0, -1, -1, 3, 2, 0, 0, 0, 0, -1, 0, -1, 0, 0, 2, 2, 0, -1, 0, 0, 0, 0, 0, 0, 0, 0, 0, 0, 0, 0, 0, 0, 0, 0, 0, 0, 0, 0, 5, 0, -6, 0, -2, -4, 0, -1, 0, 3, 0, 2, -1, 0, 0, 0, 0, 1, -2, 0, 0, -1, 0, 2, 0, 2, 0, -1, 0, 0, 0, 0, 0, 0, 0, 0, 0, 0, 0, 0, 0, 0, 0, 0, 0, 5, -6, 0, -2, 0, -4, -1, 0, 3, 0, 2, 0, -1, 0, 0, 0, 0, -1, 0, 1, -2, 0, 1, -3, -2, 0, 3, 0, 2, -1, 0, 0, 0, 0, 1, 0, 0, 0, 0, 0, 0, 0, 0, -1, 0, 3, -5, -2, 0, -4, 0, -1, 3, 0, 2, 0, -1, 0, 0, 0, 0, 0, 0, 0, 0, -1, 2, 0, -3, 0, -5, 0, -1, 0, 3, 2, 0, -1, 0, 0, 0, 0, 0; 0, 0, 0, 0, 0, 0, 1, 0, 0, 0, 0, 0, 0, 0, 0, 0, 0, 0, 0, 0, 0, 0, 0, 0, 0, 0, 0, 0, 1, 0, 0, 0, 0, 0, 0, 0, 0, 0, 0, 0, 0, 0, 0, 0, 0, 0, 0, 0, 0, 0, 0, 0, 0, 0, -1, 0, 0, 0, 0, 0, 0, 0, 0, 0, 0, 0, 0, 0, 0, 0, 0, 0, 0, 1, 0, 0, 0, 0, 0, 0, 0, 0, 0, 0, 0, 0, 0, 0, 0, 0, 0, 0, 0, 0, 0, 1, 0, 0, 0, 0, 0, 0, 0, 0, 0, 0, 0, 0, 0, 0, 0, 0, -1, 0, 0, 0, 1, 0, 0, 0, 0, 0, 0, 0, 0, 0, 0, 0, 0, 0, 0, -1, 0, 1, 0, 0, 0, 0, 1, 0, 0, 0, 0, 0, 0, 0, 0, 0, 0, 0, 0, 0, 0, 0, 0, 0, -2, 0, 1, 0, -1, 0, 0, 0, 0, 0, 0, 0, 0, 1, -1, 0, 0, 0, 0, 0, 0, 0, 0, 0, 0, 0, 0, 0, 0, 0, -1, 0, 0, 0, 0, 1, 0, 0, 0, 1, 0, 0, 0, 0, -1, 0, 0, 0, -2, -1, 2, 0, 0, 0, 0, 0, 0, 0, -1, 0, 0, 0, 2, 0, 2, 0, 0, 0, 0, -1, 0, 1, 3, -3, 0, 0, 0, 0, 0, 0, 0, 0, 0, 0, 0, -1, 0, 2, 0, 0, 2, 0, 0, 5, -3, -5, 0, 0, 0, 0, 0, 0, 0, 0, 0, 1, 2, -1, 0, 0, 0, 0, 0, 0, 0, 0, 0, 0, 0, 0, 0, 0, 0, 0, 0, 0, 0, 0, 0, 0, 0, 0, 0, -1, 0, 0, 2, 5, 2, -6, -2, -2, -5, 0, 0, 0, 0, 0, 0, 0, 0, 0, 2, 2, 0, -1, 0, 0, 0, 0, 0, 0, 0, 0, 0, 0, 0, 0, 0, 0, 0, 0, 0, 0, 0, 0, 0, 0, 0, 0, 0, 5, -1, -6, 2, -2, 3, -4, -1, 0, 0, 0, 0, 0, 0, 0, 0, 0, 0, 0, 0, 0, 0, 5, -6, 0, -2, -1, -4, 2, -1, 3, 0, 0, 0, 0, 0, -1, 0, 0, -1, 0, 2, 0, 2, 0, -1, 0, 0, 0, 0, 0, 0, 0, 0, 0, 0, 0, 0, 0, 0, 0, 0, 0, 0, 0, 0, 5, 0, -6, -2, 0, -4, 0, -1, -1, 3, 2, 0, 0, 0, 0, 0, 1, -2, 0, 0, -1, 0, 0, 2, 0, 2, -1, 0, 0, 0, 0, 0, 0, 0, 0, 0, 0, 0, 0, 0, 0, 0, 0, 0, 5, 0, -6, 0, -2, -4, 0, -1, 0, 3, 0, 2, -1, 0, 0, 0, 0, -1, 0, 1, 0, -2, 1, -3, 0, -2, 0, 3, 2, 0, -1, 0, 0, 0, 0, 0, 0, 0, 0, 0, 0, 0, 0, 0, -1, 3, -5, 0, -2, 0, -4, -1, 0, 3, 0, 2, 0, -1, 0, 0, 0, 0, 0, 0, 0, -1, 0, 2, -3, 0, 0, -5, 0, -1, 3, 0, 2, 0, -1, 0, 0, 0; 0, 0, 0, 0, 0, 0, 0, 1, 0, 0, 0, 0, 0, 0, 0, 0, 0, 0, 0, 0, 0, 0, 0, 0, 0, 0, 0, 0, 0, 0, 0, 0, 0, 0, 1, 0, 0, 0, 0, 0, 0, 0, 0, 0, 0, -1, 0, 0, -1, 0, 0, 0, 0, -1, 0, 0, 0, -1, 0, 0, 0, 0, 0, 0, -1, 0, -1, 1, -1, 0, 0, 0, 0, 0, 0, 0, 0, 0, 0, 0, 0, 0, 1, 0, 0, 0, 0, 0, 1, 0, -1, 0, 0, 0, 0, 0, 0, 0, 0, 0, 0, 0, 0, 0, 0, 0, 0, 0, 1, 1, 0, -1, -1, -1, -1, 0, 0, 0, 0, 0, 0, 0, 0, 0, 0, 0, 0, 0, 0, 0, 1, 0, -1, 1, -1, 0, -1, -1, 0, 0, 0, 0, 0, 0, 0, 0, 0, 0, 0, 0, 0, 0, 1, -1, 0, -1, 0, -1, 1, -1, 0, 1, 0, -1, 0, 0, 0, 0, -3, 0, 0, 0, -1, 0, 1, 0, 0, -1, 0, -1, 0, -4, 1, 1, 0, 0, 0, 0, 0, 0, 0, 0, 0, 0, 0, 0, 1, 0, -1, -1, 0, -1, 0, -1, 0, 0, 1, 0, 0, 0, 0, 0, 0, 0, 0, 0, 0, 1, 0, -1, 0, -1, -1, 0, -1, 0, 0, 0, 1, 0, 0, 0, 0, 0, 0, 0, 0, 0, 0, 1, -1, 0, -1, 0, -1, -1, 0, 0, 0, 1, 0, 0, 0, 0, 1, -1, 0, 0, 0, 0, -1, 0, 0, 0, 0, 0, -1, 0, 0, 1, 0, -5, 0, 1, 0, -2, 0, 0, 0, 0, 0, 0, 0, 0, 1, -1, -1, 0, -1, 0, -1, 0, 0, 1, 0, 0, 0, 0, 0, 0, 0, 0, 1, 0, 0, 0, 1, 0, 0, 0, -1, 0, 2, 0, 0, -5, 0, 4, 0, 1, 1, 1, 0, 0, 0, 0, 0, 0, 1, 0, -1, -1, -1, 0, -1, 0, 0, 1, 0, 0, 0, 0, 0, 0, 0, 0, 0, 0, 0, 0, 1, -1, 0, -1, -1, -1, 0, 0, 0, 1, 0, 0, 0, 0, 0, 0, 0, 0, 0, 0, 0, 0, 1, 0, 0, -1, 0, 0, 0, 1, 0, -5, 0, 0, 4, 0, -3, 0, -5, -2, -3, 0, 0, 0, 0, 1, -1, -1, 0, -1, -1, 0, 0, 1, 0, 0, 0, 0, 0, 0, 0, 0, 0, 0, 0, 0, -1, 0, 0, 1, 0, -1, 0, 0, 0, -5, 0, 4, 0, 0, -3, 0, -2, 0, 1, 6, 0, 0, 0, 0, 1, -1, -1, -1, 0, -1, 0, 1, 0, 0, 0, 0, 0, 0, 0, 0, 0, -1, 0, 0, 0, 0, -1, 0, -1, 0, 1, -4, 0, 0, 0, 1, 0, 1, 0, 0, -5, 0, 1, -1, -2, 0, 5, 0, 0, 1, -1, -1, -1, -1, 1, 0, 1, 0, 0, 0, 1, 0, 0, -2, 0, 6, 0, 0, 0, 2, 0, -1, -1, 0, -1, -1, 0, 1, 1, 0, 0, -2, 0, 1, 0, 0, -3, 0, 0, 0, 5, 2, -3; 0, 0, 0, 0, 0, 0, 0, 0, 1, 0, 0, 0, 0, 0, 0, 0, 0, 0, 0, 0, 0, 0, 0, 0, 0, 0, 0, 0, 0, 1, 0, 0, 0, 0, 0, 0, 0, 0, 0, 0, 0, 0, 0, 0, 0, 0, 0, 0, 0, 0, 0, 0, 0, 0, 0, -1, 0, 0, 0, 0, 0, 0, 0, 0, 0, 0, 0, 0, 0, 0, 0, 0, 0, 0, 1, 0, 0, 0, 0, 0, 0, 0, 0, 0, 0, 0, 0, 0, 0, 0, 0, 0, 0, 0, 0, 0, 1, 0, 0, 0, 0, 0, 0, 0, 0, 0, 0, 0, 0, 0, 0, 0, 0, 0, 0, 0, 0, 0, 1, 0, 0, 0, 0, 0, 0, 0, 0, 0, 0, 0, 0, 0, 0, 0, 0, -1, 0, 0, 0, 1, 0, 0, 0, 0, 0, 0, 0, 0, 0, 0, 0, 0, 0, 0, -1, 0, 1, 0, 0, 0, 0, 0, 0, 0, 0, 0, 0, 0, 0, 0, 1, -1, 0, 0, 0, 0, 0, 0, 0, 0, 0, 0, 0, 0, 1, 0, 0, 0, 0, 0, 0, 0, 0, 0, 0, 0, 0, 0, 0, 0, 0, 0, -2, 0, 1, 0, -1, 0, 0, -1, 0, 0, 0, 0, 1, 0, 0, 0, 1, 0, 0, 0, 0, -1, 0, 0, 0, -2, -1, 2, 0, 0, 0, 0, 0, 0, 0, -1, 0, 0, 0, 2, 0, 2, 0, 0, 0, 0, -1, 0, 1, 3, -3, 0, 0, 0, 0, 0, 0, 0, 0, 0, 1, 2, 0, -1, 0, 0, 0, 0, 0, 0, 0, 0, 0, 0, 0, 0, 0, 0, 0, 0, 0, 0, 0, 0, 0, -1, 0, 2, 0, 0, 2, 0, 0, 5, -3, -5, 0, 0, 0, 0, 0, 0, 0, 0, 0, 0, 0, 2, 0, 2, 0, -1, 0, 0, 0, 0, 0, 0, 0, 0, 0, 0, 0, 0, 0, 0, 0, 0, 0, 0, 0, 0, 0, -1, 0, 0, 2, 5, 2, -6, -2, -2, -5, 0, 0, 0, 0, 0, 0, 0, 0, 0, 0, 0, 0, 0, 0, 0, 5, -1, -6, 2, -2, 3, -4, -1, 0, 0, 0, 0, 0, 0, -1, 0, 0, -1, 0, 0, 2, 0, 2, -1, 0, 0, 0, 0, 0, 0, 0, 0, 0, 0, 0, 0, 0, 0, 0, 0, 0, 0, 0, 0, 0, 5, -6, 0, -2, -1, -4, 2, -1, 3, 0, 0, 0, 0, 0, 0, 1, 0, -2, 0, -1, 0, 0, 0, 2, 2, 0, -1, 0, 0, 0, 0, 0, 0, 0, 0, 0, 0, 0, 0, 0, 0, 0, 0, 0, 5, 0, -6, -2, 0, -4, 0, -1, -1, 3, 2, 0, 0, 0, 0, 0, -1, 0, 0, 1, -2, 1, 0, -3, 0, -2, 3, 0, 2, 0, -1, 0, 0, 0, 0, 0, 0, 0, 0, 0, 0, 0, 0, -1, 3, 0, -5, 0, -2, -4, 0, -1, 0, 3, 0, 2, -1, 0, 0, 0, 0, 0, 0, 0, 0, -1, 2, -3, 0, 0, 0, -5, -1, 0, 3, 0, 2, 0, -1, 0; 0, 0, 0, 0, 0, 0, 0, 0, 0, 1, 0, 0, 0, 0, 0, 0, 0, 0, 0, 0, 0, 0, 0, 0, 0, 0, 0, 0, 0, 0, 0, 1, 0, 0, 0, 0, 0, 0, 0, 0, 0, 0, 0, 0, 0, 0, 0, 0, 0, 0, 0, 0, 0, 0, 0, 0, -1, 0, 0, 0, 0, 0, 0, 0, 0, 0, 0, 0, 0, 0, 0, 0, 0, 0, 0, 1, 0, 0, 0, 0, 0, 0, 0, 0, 0, 0, 0, 0, 0, 0, 0, 0, 0, 0, 0, 0, 0, 1, 0, 0, 0, 0, 0, 0, 0, 0, 0, 0, 0, 0, 0, 0, 0, 0, 0, 0, 0, 0, 0, 1, 0, 0, 0, 0, 0, 0, 0, 0, 0, 0, 0, 0, 0, 0, 0, 0, 0, 0, 0, 0, 0, 1, 0, 0, 0, 0, 0, 0, 0, 0, 0, 0, 0, 0, 0, 0, 0, 0, -1, 0, 0, 0, 0, 0, 0, 0, 0, 0, 0, 0, 0, 1, 0, -1, 0, 0, 0, 0, 0, 0, 0, 0, 0, 0, 0, 1, 0, 0, 0, 0, 0, 0, 0, 0, 0, 0, 0, 0, 0, 0, -1, 0, 1, 0, 0, 0, 0, 1, 0, 0, 0, 0, 0, 0, 0, 0, 0, 0, 0, 0, 0, 0, 0, 0, 0, -2, 0, 1, 0, -1, 0, 0, -1, 0, 0, 0, 0, 1, 0, 0, 0, 1, 0, 0, 0, 0, -1, 0, 0, 0, -2, -1, 2, 0, 0, 0, 0, 0, 0, 0, 0, 0, 0, 1, 0, 2, 0, -1, 0, 0, 0, 0, 0, 0, 0, 0, 0, 0, 0, 0, 0, 0, 0, -1, 0, 0, 0, 2, 0, 2, 0, 0, 0, 0, -1, 0, 1, 3, -3, 0, 0, 0, 0, 0, 0, 0, 0, 0, 0, 0, 0, 2, 0, 2, -1, 0, 0, 0, 0, 0, 0, 0, 0, 0, 0, 0, 0, 0, 0, 0, 0, 0, 0, -1, 0, 2, 0, 0, 2, 0, 0, 5, -3, -5, 0, 0, 0, 0, 0, 0, 0, 0, 0, 0, 0, 0, 0, 0, -1, 0, 0, 2, 5, 2, -6, -2, -2, -5, 0, 0, 0, 0, 0, 0, 0, 0, -1, 0, -1, 0, 0, 0, 2, 2, 0, -1, 0, 0, 0, 0, 0, 0, 0, 0, 0, 0, 0, 0, 0, 0, 0, 0, 0, 0, 0, 0, 5, -1, -6, 2, -2, 3, -4, -1, 0, 0, 0, 0, 0, 0, 0, 0, 1, -2, 0, 0, -1, 0, 0, 2, 0, 2, 0, -1, 0, 0, 0, 0, 0, 0, 0, 0, 0, 0, 0, 0, 0, 0, 0, 0, 0, 5, -6, 0, -2, -1, -4, 2, -1, 3, 0, 0, 0, 0, 0, 0, -1, 0, 0, 1, -2, 0, 1, 0, -3, -2, 0, 3, 0, 2, 0, -1, 0, 0, 0, 0, 0, 0, 0, 0, 0, 0, 0, -1, 0, 3, 0, -5, -2, 0, -4, 0, -1, -1, 3, 2, 0, 0, 0, 0, 0, 0, 0, 0, 0, -1, 2, 0, -3, 0, 0, -5, 0, -1, 0, 3, 0, 2, -1; 0, 0, 0, 0, 0, 0, 0, 0, 0, 0, 1, 0, 0, 0, 0, 0, 0, 0, 0, 0, 0, 0, 0, 0, 0, 0, 0, 0, 0, 0, 0, 0, 1, 0, 0, 0, 0, 0, 0, 0, 0, 0, 0, 0, 0, 0, 0, 0, 0, 0, 0, 0, 0, 0, 0, 0, 0, 0, -1, 0, 0, 0, 0, 0, 0, 0, 0, 0, 0, 0, 0, 0, 0, 0, 0, 0, 0, 1, 0, 0, 0, 0, 0, 0, 0, 0, 0, 0, 0, 0, 0, 0, 0, 0, 0, 0, 0, 0, 1, 0, 0, 0, 0, 0, 0, 0, 0, 0, 0, 0, 0, 0, 0, 0, 0, 0, 0, 0, 0, 0, 1, 0, 0, 0, 0, 0, 0, 0, 0, 0, 0, 0, 0, 0, 0, 0, 0, 0, 0, 0, 0, 0, 1, 0, 0, 0, 0, 0, 0, 0, 0, 0, 0, 0, 0, 0, 0, 0, 0, 0, 0, 0, 0, 0, 0, 0, 0, 0, 0, 0, 0, 0, 0, 1, 0, -1, 0, 0, 0, 0, 0, 0, 0, 0, 0, 0, 0, 1, 0, 0, 0, 0, 0, 0, 0, 0, 0, 0, 0, 0, 0, 0, 0, 0, -1, 0, 0, 0, 1, 0, 0, 0, 0, 0, 0, 0, 0, 0, 0, 0, 0, 0, 0, -1, 0, 1, 0, 0, 0, 0, 1, 0, 0, 0, 0, 0, 0, 0, 0, 0, 0, 0, 0, 0, 0, 0, 0, 0, -2, 0, 1, 0, -1, 0, 0, 0, 0, 0, 0, 0, 0, 0, 0, 0, 0, 1, 0, 2, -1, 0, 0, 0, 0, 0, 0, 0, 0, 0, -1, 0, 0, 0, 0, 1, 0, 0, 0, 1, 0, 0, 0, 0, -1, 0, 0, 0, -2, -1, 2, 0, 0, 0, 0, 0, 0, 0, 0, 0, 0, 0, 0, 0, 0, 2, 2, 0, -1, 0, 0, 0, 0, 0, 0, 0, 0, 0, 0, 0, 0, -1, 0, 0, 0, 2, 0, 2, 0, 0, 0, 0, -1, 0, 1, 3, -3, 0, 0, 0, 0, 0, 0, 0, 0, 0, 0, 0, -1, 0, 2, 0, 0, 2, 0, 0, 5, -3, -5, 0, 0, 0, 0, 0, 0, 0, 0, 0, 0, -1, 0, 0, -1, 0, 0, 2, 0, 2, 0, -1, 0, 0, 0, 0, 0, 0, 0, 0, 0, 0, 0, 0, 0, 0, 0, 0, -1, 0, 0, 2, 5, 2, -6, -2, -2, -5, 0, 0, 0, 0, 0, 0, 0, 0, 0, 1, -2, 0, 0, 0, -1, 0, 0, 2, 0, 2, 0, -1, 0, 0, 0, 0, 0, 0, 0, 0, 0, 0, 0, 0, 0, 0, 0, 0, 5, -1, -6, 2, -2, 3, -4, -1, 0, 0, 0, 0, 0, 0, 0, 0, -1, 0, 1, 0, -2, 0, 1, -3, 0, -2, 0, 3, 0, 2, -1, 0, 0, 0, 0, 0, 0, 0, 0, 0, 0, 0, 0, -1, 0, 3, -5, 0, -2, -1, -4, 2, -1, 3, 0, 0, 0, 0, 0, 0, 0, 0, 0, 0, -1, 0, 2, 0, -3, 0, 0, -5, 0, -1, -1, 3, 2; 0, 0, 0, 0, 0, 0, 0, 0, 0, 0, 0, 1, 0, 0, 0, 0, 0, 0, 0, 0, 0, 0, 0, 0, 0, 0, 0, 0, 0, 0, 0, 0, 0, 0, 0, 0, 1, 0, 0, 0, 0, 0, 1, 0, 0, 0, 0, 0, 0, 0, 0, 0, 0, -1, 0, 0, 0, 0, 0, 0, 0, 0, 0, 0, 0, 0, -1, 0, 0, 0, 0, 0, 0, 0, 0, 0, 0, 0, 0, 0, 0, 0, 0, 0, 0, 1, 1, 0, 0, -1, -1, -1, 0, 0, 0, 0, 0, 0, 0, 0, 0, 0, 0, 0, 0, 0, 0, 1, 0, 0, 1, -1, 0, -1, -1, 0, 0, 0, 0, 0, 0, 0, 0, 0, 0, 0, 0, 0, 0, 1, 0, 0, -1, 0, -1, 1, -1, 0, 0, 0, 0, 0, 0, 0, 0, 0, 0, 0, 0, 0, 1, 0, 0, -1, 0, -1, 0, -1, 0, 0, 1, 0, 0, -1, 0, 0, 0, 0, 0, 0, 0, 0, -1, 0, 0, 0, 0, 0, 0, -2, 0, 0, 1, -1, 0, 0, 0, 0, 0, 0, 0, 0, 0, 0, 1, 0, 0, 0, -1, -1, 0, -1, 0, 0, 0, 1, 0, 0, 0, 0, 0, 0, 0, 0, 0, 0, 1, 0, 0, -1, 0, -1, -1, 0, 0, 0, 1, 0, 0, 0, 0, 0, 0, 0, 0, 0, 0, 0, 1, 0, -1, 0, -1, 0, -1, 0, 0, 1, 0, 0, 0, 0, 0, 1, 0, 0, 0, 0, 0, 0, -1, 0, 0, 0, 0, 0, 1, 0, 0, -2, 0, 2, 0, -2, 0, 2, 0, 0, 0, 0, 0, 0, 1, 0, 0, -1, -1, 0, -1, 0, 0, 1, 0, 0, 0, 0, 0, 0, 0, 0, 1, 0, 0, 0, 0, 0, 0, 0, 0, 0, 1, 0, -2, 0, 0, 3, 0, -3, 0, 1, -1, -2, 0, 0, 0, 0, 0, 1, 0, 0, -1, -1, -1, 0, 0, 0, 1, 0, 0, 0, 0, 0, 0, 0, 0, 0, 0, 0, 0, 1, 0, -1, 0, -1, -1, 0, 0, 1, 0, 0, 0, 0, 0, 0, 0, 0, 0, 0, 0, 0, 0, 1, 0, 0, 0, 0, 0, 0, 0, -2, 0, 3, 0, 0, -4, 0, 5, -1, 1, 2, 3, 0, 0, 0, 1, 0, -1, -1, 0, -1, 0, 1, 0, 0, 0, 0, 0, 0, 0, 0, 0, -1, 0, 0, 0, 0, 0, 0, 1, 0, 0, -2, 0, 0, 0, 2, 0, -3, 0, 0, 5, 0, -2, 1, -3, -4, -2, 0, 1, 0, 0, -1, -1, -1, 0, 0, 1, 0, 0, 0, 0, 0, 0, -1, 0, 1, 0, 0, 0, 0, 0, 0, -1, -1, 0, 1, 0, 0, 0, 0, 0, -2, 0, 1, 0, 0, 1, -1, -3, 0, 3, 4, -2, 0, 0, 0, -1, -1, -1, 0, 1, 1, 0, 0, 0, 0, -1, 0, 0, 2, 0, -4, 0, 4, 0, -3, 0, 0, 0, -1, -1, 0, 1, -1, 0, 0, 0, 2, 0, -2, 0, 0, 3, 0, -2, 0, -2, -3, 1; 0, 0, 0, 0, 0, 0, 0, 0, 0, 0, 0, 0, 1, 0, 0, 0, 0, 0, 0, 0, 0, 0, 0, 0, 0, 0, 0, 0, 0, 0, 0, 0, 0, 1, 0, 0, 0, 0, 0, 0, 0, 0, 0, 0, 0, 0, 0, 0, 0, 0, 0, 0, 0, 0, 0, 0, 0, 0, 0, 0, -1, 0, 0, 0, 0, 0, 0, 0, 0, 0, 0, 0, 0, 0, 0, 0, 0, 0, 1, 0, 0, 0, 0, 0, 0, 0, 0, 0, 0, 0, 0, 0, 0, 0, 0, 0, 0, 0, 0, 0, 1, 0, 0, 0, 0, 0, 0, 0, 0, 0, 0, 0, 0, 0, 0, 0, 0, 0, 0, 0, 0, 1, 0, 0, 0, 0, 0, 0, 0, 0, 0, 0, 0, 0, 0, 0, 0, 0, 0, 0, 0, 0, 0, 1, 0, 0, 0, 0, 0, 0, 0, 0, 0, 0, 0, 0, 0, 0, 0, 0, 0, 0, 0, 0, 0, 0, 0, 0, 0, 0, 0, 0, 0, 0, 0, 1, -1, 0, 0, 0, 0, 0, 0, 0, 0, 0, 0, 0, 1, 0, 0, 0, 0, 0, 0, 0, 0, 0, 0, 0, 0, 0, 0, 0, 0, 0, 0, 0, 0, 0, 1, 0, 0, 0, 0, 0, 0, 0, 0, 0, 0, 0, 0, 0, 0, 0, 0, -1, 0, 0, 0, 1, 0, 0, 0, 0, 0, 0, 0, 0, 0, 0, 0, 0, 0, 0, -1, 0, 1, 0, 0, 0, 0, 0, 0, 0, 0, 0, 0, 0, 0, 0, 0, 0, 0, 0, 0, 1, 2, 0, -1, 0, 0, 0, 0, 0, 1, 0, 0, 0, 0, 0, 0, 0, 0, 0, 0, 0, 0, 0, 0, 0, 0, 0, -2, 0, 1, 0, -1, 0, 0, 0, 0, 0, 0, 0, 0, 0, 0, 0, 0, 0, 0, 0, 2, 0, 2, 0, -1, 0, 0, 0, 0, 0, -1, 0, 0, 0, 0, 1, 0, 0, 0, 1, 0, 0, 0, 0, -1, 0, 0, 0, -2, -1, 2, 0, 0, 0, 0, 0, 0, 0, -1, 0, 0, 0, 2, 0, 2, 0, 0, 0, 0, -1, 0, 1, 3, -3, 0, 0, 0, 0, 0, 0, 0, 0, 0, 0, -1, 0, 0, 0, -1, 0, 0, 2, 0, 2, 0, -1, 0, 0, 0, 0, 0, 0, 0, 0, 0, 0, 0, 0, -1, 0, 2, 0, 0, 2, 0, 0, 5, -3, -5, 0, 0, 0, 0, 0, 0, 0, 0, 0, 0, 0, 1, 0, -2, 0, 0, -1, 0, 0, 0, 2, 0, 2, -1, 0, 0, 0, 0, 0, 0, 0, 0, 0, 0, 0, 0, 0, -1, 0, 0, 2, 5, 2, -6, -2, -2, -5, 0, 0, 0, 0, 0, 0, 0, 0, 0, -1, 0, 0, 1, 0, -2, 1, 0, -3, 0, -2, -1, 3, 2, 0, 0, 0, 0, 0, 0, 0, 0, 0, 0, 0, 0, 0, 0, -1, 3, -1, -5, 2, -2, 3, -4, -1, 0, 0, 0, 0, 0, 0, 0, 0, 0, 0, 0, 0, -1, 0, 2, -3, 0, 0, -1, -5, 2, -1, 3; 0, 0, 0, 0, 0, 0, 0, 0, 0, 0, 0, 0, 0, 1, 0, 0, 0, 0, 0, 0, 0, 0, 0, 0, 0, 0, 0, 0, 0, 0, 0, 0, 0, 0, 0, 0, 0, 0, 0, 1, 0, 0, 0, -1, -1, -1, 0, 0, 0, 0, 0, 0, 0, 0, 0, 0, 0, -1, 0, 0, 0, 0, 0, 0, 0, 0, 0, 1, 0, 0, 0, 0, 0, 0, 0, 0, 0, 0, 0, 0, 0, 0, 0, 0, 0, 0, 0, 1, -1, 0, -1, -1, 0, 0, 0, 0, 0, 0, 0, 0, 0, 0, 0, 0, 0, 0, 0, 0, 0, -1, 0, -1, 1, -1, 0, 0, 0, 0, 0, 0, 0, 0, 0, 0, 0, 0, 0, 0, 0, 0, -1, 0, -1, 0, -1, 0, 0, 1, 0, 0, 0, 0, 0, 0, 0, 0, 0, 0, 0, 0, 0, 0, -1, -1, 0, -1, 0, 0, 0, 1, 0, 0, 0, 0, 0, 0, 0, 0, -1, 0, 0, 0, 1, 0, 0, 0, 0, 0, 0, 0, 0, -1, -1, 1, 0, 0, 0, 0, 0, 0, 0, 0, 0, 0, 0, 0, -1, 0, -1, -1, 0, 0, 0, 1, 0, 0, 0, 0, 0, 0, 0, 0, 0, 0, 0, 0, 0, -1, 0, -1, 0, -1, 0, 0, 1, 0, 0, 0, 0, 0, 0, 0, 0, 0, 0, 0, 0, 0, 0, -1, -1, 0, -1, 0, 0, 1, 0, 0, 0, 0, 0, 0, 0, 0, 0, -1, 0, 0, 0, 0, 1, 0, 0, 0, 0, 0, 0, 0, 0, 0, 0, -2, 0, 2, 0, -3, 0, 0, 0, 0, 0, 0, 0, 0, -1, -1, -1, 0, 0, 0, 1, 0, 0, 0, 0, 0, 0, 0, 0, 1, 0, 0, 0, 0, 0, 0, 0, 0, 0, 0, 0, 0, 1, 0, 0, -2, 0, 3, 0, -3, 0, 0, 0, 0, 0, 0, 0, 0, -1, 0, -1, -1, 0, 0, 1, 0, 0, 0, 0, 0, 0, 0, 0, 0, 0, 0, 0, 0, 0, 0, -1, -1, 0, -1, 0, 1, 0, 0, 0, 0, 0, 0, 0, 0, 0, 0, 0, 0, 0, 1, 0, 0, 0, 0, 0, 0, 0, 0, 0, 0, 0, -2, 0, 0, 3, 0, -5, 0, 0, 1, -1, 0, 0, 0, 0, -1, -1, -1, 0, 0, 1, 0, 0, 0, 0, 0, 0, 0, 0, 0, 0, 0, 0, 0, 0, 0, 0, 1, 0, 0, 0, 0, 0, 0, 0, -2, 0, 3, 0, 0, -5, 0, 4, 0, 1, 1, 4, 0, 0, 0, -1, -1, -1, 0, 0, 1, 0, 0, 0, 0, 0, 0, 0, 0, 0, 0, 0, 1, 0, 0, 0, -1, 0, 0, 1, 0, 0, -1, 0, 0, 0, 2, 0, -3, 0, 0, 0, 0, 1, 1, -1, -1, -2, 0, -1, 1, -1, -1, 0, 1, -1, 0, 0, 0, 0, 0, 0, 0, 0, 1, 0, 1, 0, -1, 0, 3, 0, -1, 0, -1, 0, 1, 0, 1, 0, 0, 0, -3, 0, 0, 0, 0, -1, 0, 4, 0, -2, 3, 0; 0, 0, 0, 0, 0, 0, 0, 0, 0, 0, 0, 0, 0, 0, 1, 0, 0, 0, 0, 0, 0, 0, 0, 0, 0, 0, 0, 0, 0, 0, 0, 0, 0, 0, 0, 1, 0, 0, 0, 0, 0, 0, 0, 0, 0, 0, 0, 0, 0, 0, 0, 0, 0, 0, 0, 0, 0, 0, 0, 0, 0, -1, 0, 0, 0, 0, 0, 0, 0, 0, 0, 0, 0, 0, 0, 0, 0, 0, 0, 1, 0, 0, 0, 0, 0, 0, 0, 0, 0, 0, 0, 0, 0, 0, 0, 0, 0, 0, 0, 0, 0, 1, 0, 0, 0, 0, 0, 0, 0, 0, 0, 0, 0, 0, 0, 0, 0, 0, 0, 0, 0, 0, 0, 1, 0, 0, 0, 0, 0, 0, 0, 0, 0, 0, 0, 0, 0, 0, 0, 0, 0, 0, 0, 0, 1, 0, 0, 0, 0, 0, 0, 0, 0, 0, 0, 0, 0, 0, 0, 0, 0, 0, 0, 0, 0, 0, 0, 0, 0, 0, 0, 0, 0, 0, 0, 0, 1, 0, -1, 0, 0, 0, 0, 0, 0, 0, 0, 0, 0, 1, 0, 0, 0, 0, 0, 0, 0, 0, 0, 0, 0, 0, 0, 0, 0, 0, 0, 0, 0, 0, 0, 1, 0, 0, 0, 0, 0, 0, 0, 0, 0, 0, 0, 0, 0, 0, 0, 0, 0, 0, 0, 0, 0, 1, 0, 0, 0, 0, 0, 0, 0, 0, 0, 0, 0, 0, 0, 0, 0, 0, -1, 0, 0, 0, 0, 0, 0, 0, 0, 0, 0, 0, 0, 0, 0, 0, 0, 0, 1, 0, 2, 0, -1, 0, 0, 0, 0, 1, 0, 0, 0, 0, 0, 0, 0, 0, 0, 0, 0, 0, 0, 0, -1, 0, 1, 0, 0, 0, 0, 0, 0, 0, 0, 0, 0, 0, 0, 0, 0, 0, 0, 0, 0, 0, 0, 0, 2, 0, 2, 0, -1, 0, 1, 0, 0, 0, 0, 0, 0, 0, 0, 0, 0, 0, 0, 0, 0, 0, 0, 0, -2, 0, 1, 0, -1, 0, 0, -1, 0, 0, 0, 0, 1, 0, 0, 0, 1, 0, 0, 0, 0, -1, 0, 0, 0, -2, -1, 2, 0, 0, 0, 0, 0, 0, 0, 0, 0, 0, 0, 0, -1, 0, 0, -1, 0, 0, 0, 2, 0, 2, -1, 0, 0, 0, 0, 0, 0, 0, -1, 0, 0, 0, 2, 0, 2, 0, 0, 0, 0, -1, 0, 1, 3, -3, 0, 0, 0, 0, 0, 0, 0, 0, 0, 0, 0, 0, 1, 0, -2, 0, 0, -1, 0, 0, -1, 2, 2, 0, 0, 0, 0, 0, 0, 0, 0, 0, 0, 0, -1, 0, 2, 0, 0, 2, 0, 0, 5, -3, -5, 0, 0, 0, 0, 0, 0, 0, 0, 0, 0, 0, -1, 0, 0, 0, 1, -2, 0, 1, -1, -3, 2, -2, 3, 0, 0, 0, 0, 0, 0, 0, 0, 0, 0, 0, 0, 0, -1, 0, -1, 2, 3, 2, -5, -2, -2, -5, 0, 0, 0, 0, 0, 0, 0, 0, 0, 0, 0, 0, 0, 0, -1, 2, -1, -3, 2, 0, 3, -5, -1; 0, 0, 0, 0, 0, 0, 0, 0, 0, 0, 0, 0, 0, 0, 0, 1, 0, 0, 0, 0, 0, 0, 0, 0, 0, 0, 0, 0, 0, 0, 0, 0, 0, 0, 0, 0, 0, 1, 0, 0, 0, 0, 0, 0, 0, 0, 0, 0, 0, 0, 0, 0, 0, 0, 0, 0, 0, 0, 0, 0, 0, 0, 0, -1, 0, 0, 0, 0, 0, 0, 0, 0, 0, 0, 0, 0, 0, 0, 0, 0, 0, 1, 0, 0, 0, 0, 0, 0, 0, 0, 0, 0, 0, 0, 0, 0, 0, 0, 0, 0, 0, 0, 1, 0, 0, 0, 0, 0, 0, 0, 0, 0, 0, 0, 0, 0, 0, 0, 0, 0, 0, 0, 0, 0, 1, 0, 0, 0, 0, 0, 0, 0, 0, 0, 0, 0, 0, 0, 0, 0, 0, 0, 0, 0, 0, 0, 1, 0, 0, 0, 0, 0, 0, 0, 0, 0, 0, 0, 0, 0, 0, 0, 0, 0, 0, 0, 0, 0, 0, 0, 0, 0, 0, 0, 0, 0, 0, 0, 1, 0, -1, 0, 0, 0, 0, 0, 0, 0, 0, 0, 1, 0, 0, 0, 0, 0, 0, 0, 0, 0, 0, 0, 0, 0, 0, 0, 0, 0, 0, 0, 0, 0, 1, 0, 0, 0, 0, 0, 0, 0, 0, 0, 0, 0, 0, 0, 0, 0, 0, 0, 0, 0, 0, 0, 1, 0, 0, 0, 0, 0, 0, 0, 0, 0, 0, 0, 0, 0, 0, 0, 0, 0, 0, 0, 0, 0, 0, 0, 0, 0, 0, 0, 0, 0, 0, 0, 0, 0, 0, 0, 1, 0, 2, 0, -1, 0, 0, 0, 0, 1, 0, 0, 0, 0, 0, 0, 0, 0, 0, 0, 0, 0, 0, 0, 0, 0, -1, 0, 0, 0, 0, 0, 0, 0, 0, 0, 0, 0, 0, 0, 0, 0, 0, 0, 0, 0, 0, 0, 2, 0, 2, -1, 0, 1, 0, 0, 0, 0, 0, 0, 0, 0, 0, 0, 0, 0, 0, 0, -1, 0, 1, 0, 0, 0, 0, 1, 0, 0, 0, 0, 0, 0, 0, 0, 0, 0, 0, 0, 0, 0, 0, 0, 0, -2, 0, 1, 0, -1, 0, 0, 0, 0, 0, 0, 0, 0, 0, 0, 0, 0, 0, 0, -1, 0, 0, -1, 0, 0, -1, 2, 2, 0, 0, -1, 0, 0, 0, 0, 1, 0, 0, 0, 1, 0, 0, 0, 0, -1, 0, 0, 0, -2, -1, 2, 0, 0, 0, 0, 0, 0, 0, 0, 0, 0, 0, 0, 0, 0, 1, -2, 0, 0, -1, -1, 2, 0, 2, 0, 0, 0, 0, 0, 0, 0, -1, 0, 0, 0, 2, 0, 2, 0, 0, 0, 0, -1, 0, 1, 3, -3, 0, 0, 0, 0, 0, 0, 0, 0, 0, 0, 0, 0, -1, 0, 0, 1, -1, -2, 2, 1, 3, -3, -2, 0, 0, 0, 0, 0, 0, 0, 0, 0, 0, 0, -1, 0, 2, 0, 0, 2, -1, 0, 3, -3, -4, 0, 0, 0, 0, 0, 0, 0, 0, 0, 0, 0, 0, 0, 0, -1, 0, -1, 2, 2, 2, -3, -2, 0, -6; 0, 0, 0, 0, 0, 0, 0, 0, 0, 0, 0, 0, 0, 0, 0, 0, 1, 0, 0, 0, 0, 0, 0, 0, 0, 0, 0, 0, 0, 0, 0, 0, 0, 0, 0, 0, 0, 0, 0, 0, 0, 1, 0, 0, 0, 0, 0, 0, 0, 0, 0, 0, 0, 0, 0, 0, 0, 0, 0, -1, 0, 0, 0, 0, -1, 0, -1, 0, -1, 0, 0, 0, 0, 0, 0, 0, 0, 0, 0, 0, 0, 0, 0, 0, 0, 0, 0, 0, 0, 1, 0, 0, 0, 0, 0, 0, 0, 0, 0, 0, 0, 0, 0, 0, 0, 0, 0, 0, 0, 0, 0, 0, 0, 0, 1, 0, 0, 0, 0, 0, 0, 0, 0, 0, 0, 0, 0, 0, 0, 0, 0, 0, 0, 0, 0, 0, 1, 0, 0, 0, 0, 0, 0, 0, 0, 0, 0, 0, 0, 0, 0, 0, 0, 0, 0, 0, 0, 1, 0, 0, 0, 0, 0, 0, 0, 0, 0, 0, 0, 0, 0, 0, -1, 0, 1, 0, 0, -1, 0, 0, 0, 0, 1, 1, 0, 0, 0, 0, 0, 0, 0, 0, 0, 0, 0, 0, 0, 0, 0, 0, 0, 1, 0, 0, 0, 0, 0, 0, 0, 0, 0, 0, 0, 0, 0, 0, 0, 0, 0, 0, 0, 0, 1, 0, 0, 0, 0, 0, 0, 0, 0, 0, 0, 0, 0, 0, 0, 0, 0, 0, 0, 0, 0, 0, 1, 0, 0, 0, 0, 0, 0, 0, 0, 0, 0, 0, 0, 0, 0, 0, -1, 0, 0, 0, 2, 0, 0, 0, 0, 1, 0, 1, 0, 1, -2, 1, 0, 0, 0, 0, 0, 0, 0, 0, 0, 0, 0, 0, 1, 0, 0, 0, 0, 0, 0, 0, 0, 0, 0, 0, 0, -1, 0, 0, 0, 0, 1, 0, 0, 0, 0, 0, 1, 0, 0, 2, 0, 2, 0, 4, 0, -2, 0, 0, 0, 0, 0, 0, 0, 0, 0, 0, 1, 0, 0, 0, 0, 0, 0, 0, 0, 0, 0, 0, 0, 0, 0, 0, 0, 0, 0, 0, 0, 0, 1, 0, 0, 0, 0, 0, 0, 0, 0, 0, 0, 0, 0, 0, 1, 0, 0, 0, 0, 0, 0, -1, 0, 0, 0, 1, 0, 2, 0, 0, 2, 0, 5, 0, -2, -1, 2, 0, 0, 0, 0, 0, 0, 0, 0, 1, 0, 0, 0, 0, 0, 0, 0, 0, 0, 0, 0, 0, 0, 0, 0, 1, -1, 0, 0, 0, 0, 0, 0, 0, 0, 1, 0, 2, 0, 0, 5, 0, 0, 0, 5, -1, 0, 0, 0, 0, 0, 0, 0, 1, 0, 0, 0, 0, 0, 0, 0, 0, 0, 0, 0, 0, 0, 0, 0, 0, 0, 0, -1, 1, 0, 0, 0, 0, 0, 0, 0, 1, 0, 4, 0, 0, -2, 0, 5, 0, 5, -1, 2, 0, 0, 0, 0, 0, 1, 0, 1, 0, 0, 0, -2, 0, 0, 0, 0, -1, 0, -1, 0, -1, 2, -1, 0, 0, -1, 0, 1, 0, 0, 1, 0, 0, 0, 1, 0, -2, 0, 0, 2, 0, 0, 0, 2, -1, -5; 0, 0, 0, 0, 0, 0, 0, 0, 0, 0, 0, 0, 0, 0, 0, 0, 0, 1, 0, 0, 0, 0, 0, 0, 0, 0, 0, 0, 0, 0, 0, 0, 0, 0, 0, 0, 0, 0, 1, 0, 0, 0, 0, 0, 0, 0, 0, 0, 0, 0, 0, 0, 0, 0, 0, 0, 0, 0, 0, 0, 0, 0, 0, 0, 0, -1, 0, 0, 0, 0, 0, 0, 0, 0, 0, 0, 0, 0, 0, 0, 0, 0, 0, 1, 0, 0, 0, 0, 0, 0, 0, 0, 0, 0, 0, 0, 0, 0, 0, 0, 0, 0, 0, 0, 1, 0, 0, 0, 0, 0, 0, 0, 0, 0, 0, 0, 0, 0, 0, 0, 0, 0, 0, 0, 0, 1, 0, 0, 0, 0, 0, 0, 0, 0, 0, 0, 0, 0, 0, 0, 0, 0, 0, 0, 0, 0, 0, 1, 0, 0, 0, 0, 0, 0, 0, 0, 0, 0, 0, 0, 0, 0, 0, 0, 0, 0, 0, 0, 0, 0, 0, 0, 0, 0, 0, 0, 0, 0, 0, 0, 1, 0, -1, 0, 0, 0, 0, 0, 0, 0, 0, 0, 1, 0, 0, 0, 0, 0, 0, 0, 0, 0, 0, 0, 0, 0, 0, 0, 0, 0, 0, 0, 0, 1, 0, 0, 0, 0, 0, 0, 0, 0, 0, 0, 0, 0, 0, 0, 0, 0, 0, 0, 0, 0, 0, 1, 0, 0, 0, 0, 0, 0, 0, 0, 0, 0, 0, 0, 0, 0, 0, 0, 0, 0, 0, 0, 0, 0, 0, 0, 0, 0, 0, 0, 0, 0, 0, 0, 0, 0, 0, 0, 1, 0, 2, -1, 0, 0, 0, 0, 1, 0, 0, 0, 0, 0, 0, 0, 0, 0, 0, 0, 0, 0, 0, 0, 0, 0, 0, 0, 0, 0, 0, 0, 0, 0, 0, 0, 0, 0, 0, 0, 0, 0, 0, 0, 0, 0, 0, -1, 2, 2, 0, 0, 0, 1, 0, 0, 0, 0, 0, 0, 0, 0, 0, 0, 0, 0, 0, 0, 0, 0, -1, 0, 0, 0, 1, 0, 0, 0, 0, 0, 0, 0, 0, 0, 0, 0, 0, 0, 0, -1, 0, 1, 0, 0, 0, 0, 0, 0, 0, 0, 0, 0, 0, 0, 0, 0, 0, 0, 0, 0, 0, -1, 0, 0, -1, -1, 2, 0, 2, 1, 0, 0, 0, 0, 0, 0, 0, 0, 0, 0, 0, 0, 0, 0, 0, 0, 0, -2, 0, 1, 0, -1, 0, 0, 0, 0, 0, 0, 0, 0, 0, 0, 0, 0, 0, 0, 0, 1, -1, -2, 2, 0, 2, -1, 0, 0, 0, -1, 0, 0, 0, 0, 1, 0, 0, 0, 1, 0, 0, 0, 0, -1, 0, 0, 0, -2, -1, 2, 0, 0, 0, 0, 0, 0, 0, 0, 0, 0, 0, 0, 0, -1, -1, 0, 2, 1, 2, -2, -3, 1, -4, 0, 0, 0, 0, 0, 0, 0, -1, 0, 0, 0, 2, 0, 2, 0, 0, 0, 0, -1, -1, 1, 1, -2, 0, 0, 0, 0, 0, 0, 0, 0, 0, 0, 0, -1, 0, 2, 0, 0, 2, -1, 0, 2, -4, -2, 2; 0, 0, 0, 0, 0, 0, 0, 0, 0, 0, 0, 0, 0, 0, 0, 0, 0, 0, 1, 0, 0, 0, 0, 0, 0, 0, 0, 0, 0, 0, 0, 0, 0, 0, 0, 0, 0, 0, 0, 0, 0, 0, 0, 1, 0, 0, 0, 0, 0, 0, 0, 0, 0, 0, 0, 0, 0, 0, 0, 0, 0, 0, -1, 0, 0, 0, 0, 0, 0, 0, 0, 0, 0, 0, 0, 0, 0, 0, 0, 0, 0, 0, 0, 0, 0, 0, 0, 0, 0, 0, 0, 1, 0, 0, 0, 0, 0, 0, 0, 0, 0, 0, 0, 0, 0, 0, 0, 0, 0, 0, 0, 0, 0, 1, 0, 0, 0, 0, 0, 0, 0, 0, 0, 0, 0, 0, 0, 0, 0, 0, 0, 0, 0, 0, 1, 0, 0, 0, 0, 0, 0, 0, 0, 0, 0, 0, 0, 0, 0, 0, 0, 0, 0, 0, 0, 1, 0, 0, 0, 0, 0, 0, 0, 0, 0, 0, 0, 0, 0, 0, 0, 0, 0, 0, -1, 0, 0, 1, 0, -1, 0, -1, 0, -1, 0, 0, 0, 0, 0, 0, 0, 0, 0, 0, 0, 0, 0, 0, 0, 1, 0, 0, 0, 0, 0, 0, 0, 0, 0, 0, 0, 0, 0, 0, 0, 0, 0, 0, 0, 0, 0, 1, 0, 0, 0, 0, 0, 0, 0, 0, 0, 0, 0, 0, 0, 0, 0, 0, 0, 0, 0, 0, 1, 0, 0, 0, 0, 0, 0, 0, 0, 0, 0, 0, 0, 0, 0, 0, 0, 0, 0, 0, 0, 0, -1, 0, 2, 0, 0, 0, 0, 1, 0, 1, 1, 2, 0, 0, 0, 0, 0, 0, 0, 0, 0, 0, 1, 0, 0, 0, 0, 0, 0, 0, 0, 0, 0, 0, 0, 0, 0, 0, 0, 0, 0, 0, -1, 0, 0, 0, 2, 0, 1, 0, 0, 1, 0, 2, 0, 2, -2, 2, 0, 0, 0, 0, 0, 0, 0, 0, 0, 1, 0, 0, 0, 0, 0, 0, 0, 0, 0, 0, 0, 0, 0, 0, 0, 0, 0, 0, 0, 0, 0, 1, 0, 0, 0, 0, 0, 0, 0, 0, 0, 0, 0, 0, 0, 0, 0, 0, -1, 0, 0, 0, 0, 1, 0, 0, 0, 0, 0, 1, 0, 0, 1, 0, 2, 0, 3, 0, -2, 0, 0, 0, 0, 0, 0, 1, 0, 0, 0, 0, 0, 0, 0, 0, 0, 0, 0, 0, 0, 0, 0, 0, 1, 0, 0, 0, 0, 0, 0, -1, 0, 0, 0, 1, 0, 2, 0, 0, 2, 0, 4, 0, -1, -1, 2, 0, 0, 0, 0, 0, 1, 0, 0, 0, 0, 0, 0, 0, 0, 0, 0, 0, 0, 0, 0, 0, 0, 0, 0, 1, 0, 0, 0, 0, 0, -1, 0, 0, 0, 1, 0, 2, 0, 0, 3, 0, -1, 0, 2, -1, 2, 0, 0, 0, 0, 1, 0, 0, 0, 0, 0, 0, 1, 0, -2, 0, 0, 0, 0, -1, 0, -1, -1, -2, 0, 0, 0, 1, 0, 0, 0, -1, 0, 0, 0, 2, 0, 2, 0, 0, -2, 0, 2, 0, 2, -2, 3; 0, 0, 0, 0, 0, 0, 0, 0, 0, 0, 0, 0, 0, 0, 0, 0, 0, 0, 0, 1, 0, 0, 0, 0, 0, 0, 0, 0, 0, 0, 0, 0, 0, 0, 0, 0, 0, 0, 0, 0, 1, 0, 0, 0, 0, 0, 0, 0, 0, 0, 0, 0, 0, 0, 0, 0, 0, 0, 0, 0, 0, 0, 0, 0, 0, 0, 0, -1, 0, 0, 0, 0, 0, 0, 0, 0, 0, 0, 0, 0, 0, 0, 0, 0, 1, 0, 0, 0, 0, 0, 0, 0, 0, 0, 0, 0, 0, 0, 0, 0, 0, 0, 0, 0, 0, 0, 1, 0, 0, 0, 0, 0, 0, 0, 0, 0, 0, 0, 0, 0, 0, 0, 0, 0, 0, 0, 0, 1, 0, 0, 0, 0, 0, 0, 0, 0, 0, 0, 0, 0, 0, 0, 0, 0, 0, 0, 0, 0, 1, 0, 0, 0, 0, 0, 0, 0, 0, 0, 0, 0, 0, 0, 0, 0, 0, 0, 0, 0, 0, 0, 0, 0, 0, 0, 0, 0, 0, 0, 0, 0, 0, 0, 1, -1, 0, 0, 0, 0, 0, 0, 0, 0, 0, 1, 0, 0, 0, 0, 0, 0, 0, 0, 0, 0, 0, 0, 0, 0, 0, 0, 0, 0, 0, 0, 0, 1, 0, 0, 0, 0, 0, 0, 0, 0, 0, 0, 0, 0, 0, 0, 0, 0, 0, 0, 0, 0, 1, 0, 0, 0, 0, 0, 0, 0, 0, 0, 0, 0, 0, 0, 0, 0, 0, 0, 0, 0, 0, 0, 0, 0, 0, 0, 0, 0, 0, 0, 0, 0, 0, 0, 0, 0, 0, -1, 1, 2, 0, 0, 0, 0, 0, 1, 0, 0, 0, 0, 0, 0, 0, 0, 0, 0, 0, 0, 0, 0, 0, 0, 0, 0, 0, 0, 0, 0, 0, 0, 0, 0, 0, 0, 0, 0, 0, 0, 0, 0, 0, -1, 0, 2, 0, 2, 0, 0, 0, 0, 1, 0, 0, 0, 0, 0, 0, 0, 0, 0, 0, 0, 0, 0, 0, 0, 0, 0, 0, 0, 0, 0, 1, 0, 0, 0, 0, 0, 0, 0, 0, 0, 0, 0, 0, 0, 0, 0, 0, -1, 0, 0, 0, 0, 0, 0, 0, 0, 0, 0, 0, 0, 0, 0, 0, 0, 0, 0, -1, -1, 2, 0, 2, -1, 0, 0, 1, 0, 0, 0, 0, 0, 0, 0, 0, 0, 0, 0, 0, 0, 0, -1, 0, 1, 0, 0, 0, 0, 0, 0, 0, 0, 0, 0, 0, 0, 0, 0, 0, 0, 0, -1, 0, 0, 2, 1, 1, -2, -1, 0, -2, 1, 0, 0, 0, 0, 0, 0, 0, 0, 0, 0, 0, 0, 0, 0, 0, 0, 0, -2, 0, 1, 0, -1, 0, 0, 0, 0, 0, 0, 0, 0, 0, 0, 0, -1, 0, 2, 0, -1, 2, 0, -1, 1, -2, -1, 3, 0, 0, -1, 0, 0, 0, 0, 1, 0, 0, 0, 1, 0, 0, 0, 0, -1, 0, 0, 0, -1, -2, 0, 0, 0, 0, 0, 0, 0, 0, -1, 0, 0, 0, 2, 0, 2, 0, 0, 0, 0, -2, -1, 3, 0, 0; 0, 0, 0, 0, 0, 0, 0, 0, 0, 0, 0, 0, 0, 0, 0, 0, 0, 0, 0, 0, 1, 0, 0, 0, 0, 0, 0, 0, 0, 0, 0, 0, 0, 0, 0, 0, 0, 0, 0, 0, 0, 0, 0, 0, 0, 1, 0, 0, 0, 0, 0, 0, 0, 0, 0, 0, 0, 0, 0, 0, 0, 0, 0, 0, -1, 0, 0, 0, 0, 0, 0, 0, 0, 0, 0, 0, 0, 0, 0, 0, 0, 0, 0, 0, 0, 0, 0, 0, 0, 0, 1, 0, 0, 0, 0, 0, 0, 0, 0, 0, 0, 0, 0, 0, 0, 0, 0, 0, 0, 0, 0, 1, 0, 0, 0, 0, 0, 0, 0, 0, 0, 0, 0, 0, 0, 0, 0, 0, 0, 0, 0, 0, 1, 0, 0, 0, 0, 0, 0, 0, 0, 0, 0, 0, 0, 0, 0, 0, 0, 0, 0, 0, 0, 1, 0, 0, 0, 0, 0, 0, 0, 0, 0, 0, 0, 0, 0, 0, 0, 0, 0, 0, 0, 0, 0, 0, 0, -1, 0, 1, 0, 0, 0, 0, 0, 0, 0, 0, 0, 0, 0, 0, 0, 0, 0, 0, 0, 0, 1, 0, 0, 0, 0, 0, 0, 0, 0, 0, 0, 0, 0, 0, 0, 0, 0, 0, 0, 0, 0, 1, 0, 0, 0, 0, 0, 0, 0, 0, 0, 0, 0, 0, 0, 0, 0, 0, 0, 0, 0, 0, 1, 0, 0, 0, 0, 0, 0, 0, 0, 0, 0, 0, 0, 0, 0, 0, 0, 0, 0, 0, 0, 0, 0, 0, 0, 0, -1, 0, 0, 2, 0, 0, 0, -1, 0, -1, 0, 0, 0, 0, 0, 0, 0, 0, 0, 1, 0, 0, 0, 0, 0, 0, 0, 0, 0, 0, 0, 0, 0, 0, 0, 0, 0, 0, 0, 0, 0, 0, 0, 0, -1, 0, 2, 0, 0, 1, 0, 1, 0, 1, 1, 2, 0, 0, 0, 0, 0, 0, 0, 0, 1, 0, 0, 0, 0, 0, 0, 0, 0, 0, 0, 0, 0, 0, 0, 0, 0, 0, 0, 0, 0, 1, 0, 0, 0, 0, 0, 0, 0, 0, 0, 0, 0, 0, 0, 0, 0, 0, 0, 0, 0, 0, 0, 0, 0, -1, 0, 0, 0, 2, 0, 1, 0, 0, 1, 0, 1, 0, 2, -2, 1, 0, 0, 0, 0, 0, 1, 0, 0, 0, 0, 0, 0, 0, 0, 0, 0, 0, 0, 0, 0, 0, 0, 0, 0, 0, -1, 0, 0, 0, 0, 1, 0, 0, 0, 0, 0, 1, 0, 0, 1, 0, 2, 0, 2, 0, -1, 0, 0, 0, 0, 1, 0, 0, 0, 0, 0, 0, 0, 0, 0, 0, 0, 0, 0, 0, 0, 0, 0, 0, 1, 0, 0, 0, 0, 0, 0, 0, 0, 0, 0, -1, 0, 1, 0, 0, 2, 0, 2, 0, -3, 0, 0, 0, 0, 0, 1, 0, 0, 0, 0, 0, 0, 0, 0, 0, 1, 0, 0, -2, 0, 0, 0, 0, 0, 1, 0, 1, 0, 0, 0, 0, 0, 0, 0, 0, 0, -1, 0, 2, 0, 0, 1, 0, -1, 0, 0, 1, 2; 0, 0, 0, 0, 0, 0, 0, 0, 0, 0, 0, 0, 0, 0, 0, 0, 0, 0, 0, 0, 0, 1, 0, 0, 0, 0, 0, 0, 0, 0, 0, 0, 0, 0, 0, 0, 0, 0, 0, 0, 0, 0, 1, 0, 0, 0, 0, 0, 0, 0, 0, 0, 0, 0, 0, 0, 0, 0, 0, 0, 0, 0, 0, 0, 0, 0, 0, 0, -1, 0, 0, 0, 0, 0, 0, 0, 0, 0, 0, 0, 0, 0, 0, 0, 0, 0, 1, 0, 0, 0, 0, 0, 0, 0, 0, 0, 0, 0, 0, 0, 0, 0, 0, 0, 0, 0, 0, 1, 0, 0, 0, 0, 0, 0, 0, 0, 0, 0, 0, 0, 0, 0, 0, 0, 0, 0, 0, 0, 0, 1, 0, 0, 0, 0, 0, 0, 0, 0, 0, 0, 0, 0, 0, 0, 0, 0, 0, 0, 0, 0, 1, 0, 0, 0, 0, 0, 0, 0, 0, 0, 0, 0, 0, 0, 0, 0, 0, 0, 0, 0, 0, 0, 0, 0, 0, 0, 0, 0, 0, 0, 0, -1, 0, 1, 0, 0, 0, 0, 0, 0, 0, 0, 0, 0, 1, 0, 0, 0, 0, 0, 0, 0, 0, 0, 0, 0, 0, 0, 0, 0, 0, 0, 0, 0, 0, 0, 1, 0, 0, 0, 0, 0, 0, 0, 0, 0, 0, 0, 0, 0, 0, 0, 0, 0, 0, 0, 0, 0, 1, 0, 0, 0, 0, 0, 0, 0, 0, 0, 0, 0, 0, 0, 0, 0, 0, 0, 0, 0, 0, 0, 0, 0, 0, 0, 0, 0, 0, 0, 0, 0, 0, -1, 0, 2, 0, 1, 0, 0, 0, 0, 0, 0, 1, 0, 0, 0, 0, 0, 0, 0, 0, 0, 0, 0, 0, 0, 0, 0, 0, 0, 0, 0, 0, 0, 0, 0, 0, 0, 0, 0, 0, 0, 0, 0, 0, -1, 0, 2, 0, 2, 0, 0, 0, 0, 0, 0, 0, 1, 0, 0, 0, 0, 0, 0, 0, 0, 0, 0, 0, 0, 0, 0, 0, 0, 0, 0, 0, 0, 0, 1, 0, 0, 0, 0, 0, 0, 0, 0, 0, 0, 0, 0, 0, 0, 0, 0, 0, 0, 0, 0, 0, 0, 0, 0, 0, 0, 0, 0, 0, 0, 0, -1, 0, 0, 2, 0, 1, -1, -1, 0, -2, 0, 0, 0, 1, 0, 0, 0, 0, 0, 0, 0, 0, 0, 0, 0, 0, 0, 0, 0, 0, -1, 0, 0, 0, 0, 0, 0, 0, 0, 0, 0, 0, 0, 0, -1, 0, 2, 0, 0, 1, 0, 1, 1, 0, -1, 2, 0, 1, 0, 0, 0, 0, 0, 0, 0, 0, 0, 0, 0, 0, 0, 0, -1, 0, 1, 0, 0, 0, 0, 0, 0, 0, 0, 0, 0, 0, -1, 0, 0, 0, 2, 0, 2, 0, 0, -1, -1, 0, 0, 4, -1, 1, 1, 0, 0, 0, 0, 0, 0, 0, 0, 0, 0, 0, 0, 0, 0, 0, 0, 0, -1, 0, -1, 0, -2, 0, 0, -1, 0, 0, 0, 0, 1, 0, 0, 0, 1, 0, 0, 0, 0, -2, 0, 2, 0, 1, -2, -1; 0, 0, 0, 0, 0, 0, 0, 0, 0, 0, 0, 0, 0, 0, 0, 0, 0, 0, 0, 0, 0, 0, 1, 0, 0, 0, 0, 0, 0, 0, 0, 0, 0, 0, 0, 0, 0, 0, 0, 0, 0, 0, 0, 0, 1, 0, 0, 0, 0, 0, 0, 0, 0, 0, 0, 0, 0, 0, 0, 0, 0, 0, 0, 0, 0, 0, -1, 0, 0, 0, 0, 0, 0, 0, 0, 0, 0, 0, 0, 0, 0, 0, 0, 0, 0, 0, 0, 0, 1, 0, 0, 0, 0, 0, 0, 0, 0, 0, 0, 0, 0, 0, 0, 0, 0, 0, 0, 0, 0, 1, 0, 0, 0, 0, 0, 0, 0, 0, 0, 0, 0, 0, 0, 0, 0, 0, 0, 0, 0, 0, 1, 0, 0, 0, 0, 0, 0, 0, 0, 0, 0, 0, 0, 0, 0, 0, 0, 0, 0, 0, 0, 0, 1, 0, 0, 0, 0, 0, 0, 0, 0, 0, 0, 0, 0, 0, 0, 0, 0, 0, 0, 0, 0, 0, 0, 0, 0, 0, 0, -1, 0, 1, 0, 0, 0, 0, 0, 0, 0, 0, 0, 0, 0, 0, 0, 0, 1, 0, 0, 0, 0, 0, 0, 0, 0, 0, 0, 0, 0, 0, 0, 0, 0, 0, 0, 0, 0, 1, 0, 0, 0, 0, 0, 0, 0, 0, 0, 0, 0, 0, 0, 0, 0, 0, 0, 0, 0, 0, 0, 1, 0, 0, 0, 0, 0, 0, 0, 0, 0, 0, 0, 0, 0, 0, 0, 0, 0, 0, 0, 0, 0, 0, 0, 0, 0, 0, 0, 0, 0, -1, 0, 2, 0, 1, 0, 0, 0, 0, 0, 0, 0, 0, 0, 0, 1, 0, 0, 0, 0, 0, 0, 0, 0, 0, 0, 0, 0, 0, 0, 0, 0, 0, 0, 0, 0, 0, 0, 0, 0, 0, 0, 0, -1, 0, 0, 2, 0, 1, 0, -1, 0, -1, 0, 0, 0, 0, 0, 0, 1, 0, 0, 0, 0, 0, 0, 0, 0, 0, 0, 0, 0, 0, 0, 0, 0, 0, 0, 0, 0, 0, 1, 0, 0, 0, 0, 0, 0, 0, 0, 0, 0, 0, 0, 0, 0, 0, 0, 0, 0, 0, 0, 0, 0, 0, 0, 0, 0, 0, 0, -1, 0, 2, 0, 0, 1, 0, 1, 0, 0, 0, 2, 0, 0, 0, 0, 1, 0, 0, 0, 0, 0, 0, 0, 0, 0, 0, 0, 0, 0, 0, 0, 0, 0, 0, 0, 0, 0, 0, 0, 0, 0, -1, 0, 0, 0, 2, 0, 1, 0, 0, 1, 0, 1, 0, 2, -1, 0, 0, 0, 0, 1, 0, 0, 0, 0, 0, 0, 0, 0, 0, 0, 0, 0, 0, 0, 0, 0, -1, 0, 0, 0, 0, -1, 0, 0, 0, 0, 1, 0, 0, 0, 1, 0, -1, 0, 0, 0, 0, 2, -1, 1, -1, -3, 0, 1, 0, 0, 0, 0, 0, 0, 0, 0, 0, 0, 0, 0, 0, 0, 0, 0, -1, 0, -1, 0, 0, 1, 0, 0, 0, 0, 0, 0, 0, 0, 0, 0, 0, 0, -1, 0, 0, 2, 0, 0, 0, -3, 0, -3]]'
p1
tp2
Rp3
.