csage.libs.pari.gen_py
pari
p0
(S'[y^6 + y^5 + y^4 + y^3 + y^2 + y + 1, [0, 3], -16807, 1, [[1, -0.900968867902419 + 0.433883739117558*I, 0.623489801858734 - 0.781831482468030*I, -0.222520933956314 + 0.974927912181824*I, -0.222520933956314 - 0.974927912181824*I, 0.623489801858734 + 0.781831482468030*I; 1, 0.623489801858734 + 0.781831482468030*I, -0.222520933956314 + 0.974927912181824*I, -0.900968867902419 + 0.433883739117558*I, -0.900968867902419 - 0.433883739117558*I, -0.222520933956314 - 0.974927912181824*I; 1, -0.222520933956314 + 0.974927912181824*I, -0.900968867902419 - 0.433883739117558*I, 0.623489801858734 - 0.781831482468030*I, 0.623489801858734 + 0.781831482468030*I, -0.900968867902419 + 0.433883739117558*I], [1, -0.467085128784861, -0.158341680609296, 0.752406978225509, -1.19744884613814, 1.40532128432676; 1, -1.33485260701998, 1.40532128432676, -1.19744884613814, 0.752406978225509, -0.158341680609296; 1, 1.40532128432676, 0.752406978225509, -0.467085128784861, -1.33485260701998, -1.19744884613814; 1, -0.158341680609296, -1.19744884613814, -1.33485260701998, -0.467085128784861, 0.752406978225509; 1, 0.752406978225509, -1.33485260701998, -0.158341680609296, 1.40532128432676, -0.467085128784861; 1, -1.19744884613814, -0.467085128784861, 1.40532128432676, -0.158341680609296, -1.33485260701998], [1, 0, 0, 1, -1, 1; 1, -1, 1, -1, 1, 0; 1, 1, 1, 0, -1, -1; 1, 0, -1, -1, 0, 1; 1, 1, -1, 0, 1, 0; 1, -1, 0, 1, 0, -1], [6, -1, -1, -1, -1, -1; -1, -1, -1, -1, -1, -1; -1, -1, -1, -1, -1, 6; -1, -1, -1, -1, 6, -1; -1, -1, -1, 6, -1, -1; -1, -1, 6, -1, -1, -1], [7, 0, 0, 0, 0, 6; 0, 7, 0, 0, 0, 5; 0, 0, 7, 0, 0, 4; 0, 0, 0, 7, 0, 3; 0, 0, 0, 0, 7, 2; 0, 0, 0, 0, 0, 1], [1, -1, 0, 0, 0, 0; -1, -2, -1, -1, -1, -1; 0, -1, 0, 0, 0, 1; 0, -1, 0, 0, 1, 0; 0, -1, 0, 1, 0, 0; 0, -1, 1, 0, 0, 0], [7, [-1, 0, 0, 0, 0, -1; 1, -1, 0, 0, 0, -1; 0, 1, -1, 0, 0, -1; 0, 0, 1, -1, 0, -1; 0, 0, 0, 1, -1, -1; 0, 0, 0, 0, 1, -2]], []], [-0.900968867902419 + 0.433883739117558*I, 0.623489801858734 + 0.781831482468030*I, -0.222520933956314 + 0.974927912181824*I], [1, y, y^2, y^3, y^4, y^5], [1, 0, 0, 0, 0, 0; 0, 1, 0, 0, 0, 0; 0, 0, 1, 0, 0, 0; 0, 0, 0, 1, 0, 0; 0, 0, 0, 0, 1, 0; 0, 0, 0, 0, 0, 1], [1, 0, 0, 0, 0, 0, 0, 0, 0, 0, 0, -1, 0, 0, 0, 0, -1, 1, 0, 0, 0, -1, 1, 0, 0, 0, -1, 1, 0, 0, 0, -1, 1, 0, 0, 0; 0, 1, 0, 0, 0, 0, 1, 0, 0, 0, 0, -1, 0, 0, 0, 0, -1, 0, 0, 0, 0, -1, 0, 1, 0, 0, -1, 0, 1, 0, 0, -1, 0, 1, 0, 0; 0, 0, 1, 0, 0, 0, 0, 1, 0, 0, 0, -1, 1, 0, 0, 0, -1, 0, 0, 0, 0, -1, 0, 0, 0, 0, -1, 0, 0, 1, 0, -1, 0, 0, 1, 0; 0, 0, 0, 1, 0, 0, 0, 0, 1, 0, 0, -1, 0, 1, 0, 0, -1, 0, 1, 0, 0, -1, 0, 0, 0, 0, -1, 0, 0, 0, 0, -1, 0, 0, 0, 1; 0, 0, 0, 0, 1, 0, 0, 0, 0, 1, 0, -1, 0, 0, 1, 0, -1, 0, 0, 1, 0, -1, 0, 0, 1, 0, -1, 0, 0, 0, 0, -1, 0, 0, 0, 0; 0, 0, 0, 0, 0, 1, 0, 0, 0, 0, 1, -1, 0, 0, 0, 1, -1, 0, 0, 0, 1, -1, 0, 0, 0, 1, -1, 0, 0, 0, 1, -1, 0, 0, 0, 0]]'
p1
tp2
Rp3
.