csage.libs.pari.gen_py
pari
p0
(S'[y^3 + y^2 - 2*y - 1, [3, 0], 49, 1, [[1, -1.80193773580484, 1.24697960371747; 1, -0.445041867912629, -1.80193773580484; 1, 1.24697960371747, -0.445041867912629], [1, -1.80193773580484, 1.24697960371747; 1, -0.445041867912629, -1.80193773580484; 1, 1.24697960371747, -0.445041867912629], [1, -2, 1; 1, 0, -2; 1, 1, 0], [3, -1, -1; -1, 5, -2; -1, -2, 5], [7, 0, 6; 0, 7, 3; 0, 0, 1], [3, 1, 1; 1, 2, 1; 1, 1, 2], [7, [-2, 2, -1; 1, -2, 0; 0, 1, -3]], []], [-1.80193773580484, -0.445041867912629, 1.24697960371747], [1, y, y^2 - 2], [1, 0, 2; 0, 1, 0; 0, 0, 1], [1, 0, 0, 0, 2, -1, 0, -1, 1; 0, 1, 0, 1, 0, 0, 0, 0, -1; 0, 0, 1, 0, 1, -1, 1, -1, -1]]'
p1
tp2
Rp3
.