csage.libs.pari.gen_py
pari
p0
(S'[y^2 + y + 1, [0, 1], -3, 1, [Mat([1, -0.500000000000000 + 0.866025403784439*I]), [1, 0.366025403784439; 1, -1.36602540378444], [1, 0; 1, -1], [2, -1; -1, -1], [3, 2; 0, 1], [1, -1; -1, -2], [3, [2, -1; 1, 1]], []], [-0.500000000000000 + 0.866025403784439*I], [1, y], [1, 0; 0, 1], [1, 0, 0, -1; 0, 1, 1, -1]]'
p1
tp2
Rp3
.