csage.libs.pari.gen_py
pari
p0
(S'[y^2 + y + 41, [0, 1], -163, 1, [Mat([1, -0.500000000000000 + 6.38357266740185*I]), [1, 5.88357266740185; 1, -6.88357266740185], [1, 6; 1, -7], [2, -1; -1, -81], [163, 82; 0, 1], [81, -1; -1, -2], [163, [82, -41; 1, 81]], []], [-0.500000000000000 + 6.38357266740185*I], [1, y], [1, 0; 0, 1], [1, 0, 0, -41; 0, 1, 1, -1]]'
p1
tp2
Rp3
.