csage.libs.pari.gen_py
pari
p0
(S'[y^4 + 5*y^3 - 3*y^2 - 2*y + 1, [4, 0], 2777, 1, [[1, -1.50848119918067, 1.18264432359595, 1.78399672746223; 1, 0.825784551885355, 2.59615467600863, -2.14386442575286; 1, -0.679643185562122, -1.26307741031324, -0.858441954756848; 1, 2.36233983285744, -0.515721589291339, 1.21830965304748], [1, -1.50848119918067, 1.18264432359595, 1.78399672746223; 1, 0.825784551885355, 2.59615467600863, -2.14386442575286; 1, -0.679643185562122, -1.26307741031324, -0.858441954756848; 1, 2.36233983285744, -0.515721589291339, 1.21830965304748], [1, -2, 1, 2; 1, 1, 3, -2; 1, -1, -1, -1; 1, 2, -1, 1], [4, 1, 2, 0; 1, 9, 0, -1; 2, 0, 10, -3; 0, -1, -3, 10], [2777, 522, 2520, 1919; 0, 1, 0, 0; 0, 0, 1, 0; 0, 0, 0, 1], [809, -97, -181, -64; -97, 324, 32, 42; -181, 32, 346, 107; -64, 42, 107, 314], [2777, [725, -778, 266, 2; -389, 337, -1, -522; 133, -1, 857, 257; 1, -522, 257, 858]], []], [-5.47512225023885, -0.626505698370420, 0.441876179507967, 0.659751769101303], [1, 2*y^3 + 11*y^2 - 3, y^3 + 5*y^2 - 3*y - 1, y^3 + 6*y^2 + 2*y - 3], [1, -1, 7, -37; 0, 1, -5, 28; 0, -1, 4, -22; 0, -1, 6, -33], [1, 0, 0, 0, 0, 2, 0, 0, 0, 0, 2, 0, 0, 0, 0, 2; 0, 1, 0, 0, 1, 1, 0, 1, 0, 0, 0, -1, 0, 1, -1, 0; 0, 0, 1, 0, 0, 0, 0, -1, 1, 0, 1, -1, 0, -1, -1, 1; 0, 0, 0, 1, 0, 1, -1, 0, 0, -1, -1, 1, 1, 0, 1, 0]]'
p1
tp2
Rp3
.