csage.libs.cypari2.gen
objtogen
p0
(S'[y^8 - 5*y^7 + 6*y^6 + 2*y^5 + 4*y^4 + y^3 - 3*y^2 - 2*y + 1, [2, 3], -2839426932355, 1, [[1, -2.70329055127826, -0.630080458969848, -3.60448925335206, -0.602998615224345, -3.33740063821415, 1.01001810320859, -0.277981870343677; 1, -1.47799388733135, -0.323407215299389, 0.293527956342513, -0.895407773092295, 4.38982029989780, 0.612988549752595, 5.05429504449693; 1, 1.25631663940990 + 0.623872516145751*I, -1.63851879319532 + 0.317081151057763*I, -1.44543122146605 - 2.19143536195461*I, 1.58420337929812 - 1.03908684995229*I, -1.06389027740282 + 2.40715649017497*I, -0.627753361596322 + 1.88780321136864*I, 1.38959883287264 - 6.01532037047051*I; 1, -0.325378813430455 + 0.109027590221695*I, 1.76310520124293 + 0.925858381633494*I, 1.23139445663059 - 0.0380770543466610*I, 1.25132620780888 + 3.26477145654475*I, 2.04727584454605 - 0.364700617424420*I, -2.57960147296325 + 5.98882801192750*I, -0.770140462092067 - 0.195229969023823*I; 1, 0.159704393325363 + 1.02699917230396*I, -1.14784257091299 + 0.950720232533644*I, 1.86951741334023 - 1.35503173182086*I, -0.586326392948675 - 2.18255431186084*I, -1.00959539798506 - 3.75758666004909*I, 3.89585150807899 + 0.997076155305161*I, -3.00761495785720 + 3.34054505144434*I], [1, -2.70329055127826, -0.630080458969848, -3.60448925335206, -0.602998615224345, -3.33740063821415, 1.01001810320859, -0.277981870343677; 1, -1.47799388733135, -0.323407215299389, 0.293527956342513, -0.895407773092295, 4.38982029989780, 0.612988549752595, 5.05429504449693; 1, 1.88018915555565, -1.32143764213755, -3.63686658342065, 0.545116529345825, 1.34326621277214, 1.26004984977232, -4.62572153759787; 1, 0.632444123264146, -1.95559994425308, 0.746004140488560, 2.62329022925041, -3.47104676757779, -2.51555657296496, 7.40491920334315; 1, -0.216351223208760, 2.68896358287642, 1.19331740228393, 4.51609766435362, 1.68257522712163, 3.40922653896425, -0.965370431115889; 1, -0.434406403652149, 0.837246819609435, 1.26947151097725, -2.01344524873587, 2.41197646197047, -8.56842948489076, -0.574910493068244; 1, 1.18670356562932, -0.197122338379350, 0.514485681519363, -2.76888070480951, -4.76718205803415, 4.89292766338415, 0.332930093587136; 1, -0.867294778978594, -2.09856280344664, 3.22454914516109, 1.59622791891216, 2.74799126206404, 2.89877535277382, -6.34816000930154], [1, -3, -1, -4, -1, -3, 1, 0; 1, -1, 0, 0, -1, 4, 1, 5; 1, 2, -1, -4, 1, 1, 1, -5; 1, 1, -2, 1, 3, -3, -3, 7; 1, 0, 3, 1, 5, 2, 3, -1; 1, 0, 1, 1, -2, 2, -9, -1; 1, 1, 0, 1, -3, -5, 5, 0; 1, -1, -2, 3, 2, 3, 3, -6], [8, -2, -3, 0, 3, 1, 3, 0; -2, 10, -6, 11, 11, 3, -8, -3; -3, -6, 11, 11, 0, 20, -31, -4; 0, 11, 11, 14, -12, 18, 18, -32; 3, 11, 0, -12, -23, -8, -45, 5; 1, 3, 20, 18, -8, 3, -15, 77; 3, -8, -31, 18, -45, -15, -35, 0; 0, -3, -4, -32, 5, 77, 0, -46], [218417456335, 16754324873, 165680757947, 120373435362, 63739434440, 68450343912, 207916773143, 209798018244; 0, 13, 12, 3, 4, 11, 3, 6; 0, 0, 1, 0, 0, 0, 0, 0; 0, 0, 0, 1, 0, 0, 0, 0; 0, 0, 0, 0, 1, 0, 0, 0; 0, 0, 0, 0, 0, 1, 0, 0; 0, 0, 0, 0, 0, 0, 1, 0; 0, 0, 0, 0, 0, 0, 0, 1], [26337502933, -1447732876, 660691614, 2310123474, 3159472564, 215981736, -963452489, -865120924; -1447732876, 8108274242, -5805579668, 3309684822, 4443596267, 1434728673, -1461281662, 558253713; 660691614, -5805579668, 4207500692, 2837725167, 1939239197, -136078867, -3318609632, -1978311867; 2310123474, 3309684822, 2837725167, 2337756622, -2823265063, 558253713, 1521032943, -1461281662; 3159472564, 4443596267, 1939239197, -2823265063, -982809488, -1155186787, -2155751712, -534928122; 215981736, 1434728673, -136078867, 558253713, -1155186787, 1929914622, 756337532, 2634858752; -963452489, -1461281662, -3318609632, 1521032943, -2155751712, 756337532, 180048432, 357488277; -865120924, 558253713, -1978311867, -1461281662, -534928122, 2634858752, 357488277, 756337532], [218417456335, [-30005836012, -137733846578, 576573446135, -9366856222, 999574007667, 228231578522, 1234016479155, 281750141421; -93630396066, -48004626759, 94719528695, 197799831394, 122297509151, 202917533886, -138631445310, 17694691188; -35306469366, 20134484506, 4102621045, -37272797331, 820542091911, -30574389134, 1235814401530, -93743357922; 1089132629, 93630396066, 123386641780, -140545890196, 78385592536, 11628171891, 38361929960, 4028569863; -91456449981, 60364568001, -117585832315, -78385592536, -78176741904, -334483095134, 729085641930, -181831384522; 31239013986, -21370749141, -42196411460, 93630396066, -60364568001, 25975885509, 11104529480, 199520696737; -82279362949, 10957397474, -173735812930, -124475774409, -209042282296, -105283290526, -113483211270, 228519522142; -10957397474, -31239013986, -71321965475, -1089132629, -91456449981, 145151026564, -46263866840, -56697113083]], []], [0.369919541030152, 0.676592784700611, -0.638518793195316 + 0.317081151057763*I, 2.76310520124293 + 0.925858381633494*I, -0.147842570912994 + 0.950720232533644*I], [1, y^7 - 5*y^6 + 6*y^5 + 2*y^4 + 4*y^3 + y^2 - 3*y - 2, y - 1, y^7 - 4*y^6 + y^5 + 8*y^4 + 6*y^3 + 5*y^2 - 2*y - 4, y^2 - 2*y, 2*y^7 - 9*y^6 + 8*y^5 + 5*y^4 + 16*y^3 + 8*y^2 - y - 5, y^3 - 3*y^2 + y + 1, y^7 - 4*y^6 + y^5 + 9*y^4 + y^3 + 11*y^2 - 2], [1, 1, 2, 4, 4, -13, -104, -463; 0, 0, 0, 0, 0, -1, -6, -23; 0, 1, 2, 5, 11, 17, 0, -143; 0, 0, 0, 0, -1, -6, -23, -77; 0, 0, 1, 3, 9, 25, 61, 124; 0, 0, 0, 0, 0, 1, 5, 19; 0, 0, 0, 1, 5, 19, 63, 187; 0, 0, 0, 0, 1, 5, 19, 63], [1, 0, 0, 0, 0, 0, 0, 0, 0, 1, -1, 1, 1, 0, 0, -1, 0, -1, 1, 2, 0, 3, -5, -1, 0, 1, 2, 1, -2, 1, 1, -2, 0, 1, 0, -2, -4, 0, -9, 1, 0, 0, 3, 1, 0, 1, -5, 10, 0, 0, -5, 1, -9, -5, -5, 2, 0, -1, -1, -2, 1, 10, 2, -9; 0, 1, 0, 0, 0, 0, 0, 0, 1, -1, -1, -2, 0, -2, 1, 0, 0, -1, 0, 1, 0, 0, 0, 0, 0, -2, 1, -3, -2, -2, 1, -1, 0, 0, 0, -2, 0, 1, -1, -1, 0, -2, 0, -2, 1, -3, -3, 4, 0, 1, 0, 1, -1, -3, 0, 4, 0, 0, 0, -1, -1, 4, 4, -12; 0, 0, 1, 0, 0, 0, 0, 0, 0, 0, 0, 0, -1, 0, 1, -1, 1, 0, 0, 1, 1, 1, -1, -1, 0, 0, 1, 0, 1, -1, -2, 4, 0, -1, 1, 1, -1, 3, -7, 0, 0, 0, 1, -1, 3, 3, -2, -2, 0, 1, -1, -2, -7, -2, -9, 2, 0, -1, -1, 4, 0, -2, 2, 0; 0, 0, 0, 1, 0, 0, 0, 0, 0, -1, 0, 0, 0, 0, 0, 0, 0, 0, 0, -1, 0, 1, -1, -1, 1, 0, -1, -1, 0, -2, 1, 0, 0, 0, 0, 0, -1, -2, -1, 3, 0, 0, 1, -2, -2, -2, 1, -1, 0, 0, -1, 1, -1, 1, 2, -4, 0, 0, -1, 0, 3, -1, -4, 5; 0, 0, 0, 0, 1, 0, 0, 0, 0, 0, 0, 0, 0, 0, -1, 2, 0, 0, 1, 0, 0, 0, 1, 0, 0, 0, 0, 0, 1, 2, 1, -3, 1, 0, 0, 1, 1, 1, 0, -1, 0, 0, 0, 2, 1, -1, 3, -3, 0, -1, 1, 1, 0, 3, -7, 0, 0, 2, 0, -3, -1, -3, 0, -1; 0, 0, 0, 0, 0, 1, 0, 0, 0, 0, 0, -1, 0, -1, 0, -1, 0, 0, 0, 0, 0, -1, 0, 1, 0, -1, 0, 0, 0, 0, 0, 0, 0, 0, 0, 0, 0, 0, 1, -2, 1, -1, -1, 0, 0, 1, 1, 2, 0, 0, 0, 0, 1, 1, -1, 1, 0, -1, 1, 0, -2, 2, 1, 2; 0, 0, 0, 0, 0, 0, 1, 0, 0, 0, 0, 0, 0, 0, 0, -1, 0, 0, 0, 0, 1, 0, 1, 0, 0, 0, 0, 0, 0, -1, 1, 1, 0, 0, 1, 0, 1, 0, 1, 0, 0, 0, 0, -1, 0, 0, 1, 2, 1, 0, 1, 1, 1, 1, 0, -1, 0, -1, 0, 1, 0, 2, -1, 1; 0, 0, 0, 0, 0, 0, 0, 1, 0, 0, 0, 0, 0, -1, 0, 0, 0, 0, 0, 0, 0, 0, 1, -1, 0, 0, 0, -1, 0, 0, 0, 0, 0, 0, 0, 0, 1, 0, 0, 0, 0, -1, 0, 0, 0, 2, 0, 1, 0, 0, 1, 0, 0, 0, 0, 1, 1, 0, -1, 0, 0, 1, 1, 1]]'
p1
tp2
Rp3
.