csage.libs.pari.gen_py
pari
p0
(S'[y^3 - 3*y^2 - 2*y + 1, [3, 0], 257, 1, [[1, 2.19869124351600, -1.83424318431392; 1, -1.91222917848440, -0.656620431047110; 1, 0.713537934968400, 2.49086361536103], [1, 2.19869124351600, -1.83424318431392; 1, -1.91222917848440, -0.656620431047110; 1, 0.713537934968400, 2.49086361536103], [1, 2, -2; 1, -2, -1; 1, 1, 2], [3, 1, 0; 1, 9, -1; 0, -1, 10], [257, 9, 78; 0, 1, 0; 0, 0, 1], [89, -10, -1; -10, 30, 3; -1, 3, 26], [257, [-89, 30, 3; 10, -90, -9; 1, -9, -78]], []], [-0.834243184313922, 0.343379568952890, 3.49086361536103], [1, y^2 - 3*y - 1, y - 1], [1, 1, 4; 0, 0, 1; 0, 1, 3], [1, 0, 0, 0, 3, 0, 0, 0, 3; 0, 1, 0, 1, 0, -1, 0, -1, 1; 0, 0, 1, 0, -1, 1, 1, 1, 1]]'
p1
tp2
Rp3
.