csage.libs.pari.gen_py
pari
p0
(S'[y^8 - 5*y^7 + 6*y^6 + 4*y^4 + y^3 - 3*y^2 - 2*y + 1, [2, 3], -610008404179, 1, [[1, -2.73937126704523, -0.634952730931346, -0.596835029482825, -3.76478367166777, 0.0139147628169568, -3.19944495178593, -1.24639786988534; 1, -1.33352213590341, -0.250106186409466, -0.937446895519714, 0.555240848959024, -0.515432545590706, 4.65757642106094, 7.47382999850020; 1, 1.27872401652129 + 0.675136375253922*I, -1.61155338087844 + 0.322885882728454*I, 1.49284900615539 - 1.04069567189792*I, -1.45805000175862 - 2.40176257018256*I, -1.45822654145986 + 1.83627061491697*I, 0.297031626519917 + 2.38241544036432*I, 0.949733294036609 + 0.315908113256185*I; 1, -0.359988549394844 + 0.0705658295811548*I, 1.67507686108240 + 0.524375061965055*I, 1.53091328492282 + 1.75673706565263*I, 1.23537633000392 - 0.0197600483256274*I, -1.03186854884244 + 3.22106729636000*I, 0.488227186499458 - 0.759795467831728*I, -0.785115730307991 + 2.86229169036354*I; 1, 0.117711234347876 + 0.979291709425056*I, -1.12099402153356 + 1.00660266485388*I, -0.756621328576946 - 2.25679113872189*I, 1.82744508310907 - 1.20983898123119*I, 3.24085398168917 + 0.761629663872443*I, 0.485675452343123 - 4.61237626317939*I, -2.27833362803605 + 1.05948749494338*I], [1, -2.73937126704523, -0.634952730931346, -0.596835029482825, -3.76478367166777, 0.0139147628169568, -3.19944495178593, -1.24639786988534; 1, -1.33352213590341, -0.250106186409466, -0.937446895519714, 0.555240848959024, -0.515432545590706, 4.65757642106094, 7.47382999850020; 1, 1.95386039177521, -1.28866749814998, 0.452153334257474, -3.85981257194117, 0.378044073457112, 2.67944706688423, 1.26564140729279; 1, 0.603587641267365, -1.93443926360689, 2.53354467805331, 0.943712568423941, -3.29449715637683, -2.08538381384440, 0.633825180780423; 1, -0.289422719813689, 2.19945192304746, 3.28765035057545, 1.21561628167829, 2.18919874751756, -0.271568281332270, 2.07717596005555; 1, -0.430554378975999, 1.15070179911735, -0.225823780729807, 1.25513637832954, -4.25293584520243, 1.24802265433119, -3.64740742067153; 1, 1.09700294377293, -0.114391356679682, -3.01341246729884, 0.617606101877885, 4.00248364556161, -4.12670081083626, -1.21884613309267; 1, -0.861580475077180, -2.12759668638744, 1.50016981014495, 3.03728406434026, 2.47922431781673, 5.09805171552251, -3.33782112297943], [1, -3, -1, -1, -4, 0, -3, -1; 1, -1, 0, -1, 1, -1, 5, 7; 1, 2, -1, 0, -4, 0, 3, 1; 1, 1, -2, 3, 1, -3, -2, 1; 1, 0, 2, 3, 1, 2, 0, 2; 1, 0, 1, 0, 1, -4, 1, -4; 1, 1, 0, -3, 1, 4, -4, -1; 1, -1, -2, 2, 3, 2, 5, -3], [8, -2, -3, 3, 0, 1, 4, 2; -2, 10, -6, 11, 11, -6, 9, -7; -3, -6, 11, 6, 11, -12, 9, -7; 3, 11, 6, -7, -12, -16, -14, -7; 0, 11, 11, -12, 14, 24, 17, 0; 1, -6, -12, -16, 24, -1, 2, -41; 4, 9, 9, -14, 17, 2, -22, 49; 2, -7, -7, -7, 0, -41, 49, 52], [610008404179, 501222159452, 579943368594, 308801100118, 446204740583, 149164846989, 479719834505, 137014080675; 0, 1, 0, 0, 0, 0, 0, 0; 0, 0, 1, 0, 0, 0, 0, 0; 0, 0, 0, 1, 0, 0, 0, 0; 0, 0, 0, 0, 1, 0, 0, 0; 0, 0, 0, 0, 0, 1, 0, 0; 0, 0, 0, 0, 0, 0, 1, 0; 0, 0, 0, 0, 0, 0, 0, 1], [70823031651, -4181489526, 4841107301, 13164717086, 3490976656, 2092673242, 3036645795, -2074456929; -4181489526, 22857885342, -11555165180, 15057627795, 9580688541, -3877036467, 898873376, -194574535; 4841107301, -11555165180, 25300855938, 9101571262, 9696306311, -7560028994, 218156724, -3276966321; 13164717086, 15057627795, 9101571262, -7642363536, -6832071249, -10191372112, -1012801405, -5364049486; 3490976656, 9580688541, 9696306311, -6832071249, -745975158, 7035928370, 9268116303, -1644848534; 2092673242, -3877036467, -7560028994, -10191372112, 7035928370, -2937287018, -1440991413, -3950088423; 3036645795, 898873376, 218156724, -1012801405, 9268116303, -1440991413, -7035928370, 5391079836; -2074456929, -194574535, -3276966321, -5364049486, -1644848534, -3950088423, 5391079836, 2426762468], [610008404179, [-24777777612, 518650796921, -794135984941, -10942656734, -989908074514, -798961870549, -210012270279, -929216321111; 232082309467, 437484576556, -395885973063, 188756046878, -476695558220, -138652233472, 1014272102263, 831748304097; -257951091717, -107338604881, 82560827268, -931539625407, -195187342432, 203752222639, 682384410272, -483314796722; 301207304061, -30065035584, -119099811403, 33904653711, 113699850190, -660397356930, 291681139754, 379211161072; -163803663595, -123296064740, 55017418867, 187507453871, 669566886023, -349863477620, -681006820669, -370933589778; 30065035585, -108786244728, 301207304062, -119099811403, -24952383282, 3839618125, 342316194042, 13191176758; -108786244728, 163803663595, 78721209143, -271142268477, -395885973063, 420307115465, 154452104962, -137403640464; 1, 108786244727, 30065035585, 301207304061, 163803663596, -149164846989, -479719834505, -747022484854]], []], [0.365047269068654, 0.749893813590534, -0.611553380878438 + 0.322885882728454*I, 2.67507686108240 + 0.524375061965055*I, -0.120994021533560 + 1.00660266485388*I], [1, y^7 - 5*y^6 + 6*y^5 + 4*y^3 + y^2 - 3*y - 2, y - 1, y^2 - 2*y, y^7 - 4*y^6 + y^5 + 6*y^4 + 4*y^3 + 5*y^2 - 2*y - 4, y^3 - 3*y^2 + y, 2*y^7 - 9*y^6 + 8*y^5 + y^4 + 14*y^3 + 6*y^2 - 2*y - 4, 2*y^7 - 9*y^6 + 8*y^5 + 2*y^4 + 10*y^3 + 9*y^2 - 3], [1, 1, 2, 5, 11, 20, 27, -2; 0, 0, 0, 0, 0, -1, -6, -23; 0, 1, 2, 5, 12, 27, 54, 89; 0, 0, 1, 3, 9, 27, 77, 210; 0, 0, 0, 0, 0, -1, -4, -14; 0, 0, 0, 1, 4, 14, 46, 142; 0, 0, 0, 0, -1, -4, -14, -46; 0, 0, 0, 0, 1, 5, 19, 65], [1, 0, 0, 0, 0, 0, 0, 0, 0, 1, -1, 1, 1, 0, 1, -1, 0, -1, 1, 1, 2, -2, 2, -2, 0, 1, 1, -1, -2, -4, -1, -1, 0, 1, 2, -2, 1, 2, 0, 0, 0, 0, -2, -4, 2, 0, -2, -5, 0, 1, 2, -1, 0, -2, -4, 7, 0, -1, -2, -1, 0, -5, 7, 4; 0, 1, 0, 0, 0, 0, 0, 0, 1, -1, -1, 0, -2, 0, -1, 0, 0, -1, 0, 0, 1, 0, 0, -1, 0, 0, 0, 0, -2, -1, 1, 1, 0, -2, 1, -2, -3, 1, -3, -1, 0, 0, 0, -1, 1, 0, -3, 0, 0, -1, 0, 1, -3, -3, -5, -1, 0, 0, -1, 1, -1, 0, -1, -4; 0, 0, 1, 0, 0, 0, 0, 0, 0, 0, 0, -1, -1, 1, 0, 0, 1, 0, 0, 1, 1, -1, 0, -1, 0, -1, 1, 0, 1, -2, 2, -2, 0, -1, 1, 1, 1, -2, -2, 0, 0, 1, -1, -2, -2, -4, -1, -1, 0, 0, 0, 2, -2, -1, 2, 1, 0, 0, -1, -2, 0, -1, 1, -4; 0, 0, 0, 1, 0, 0, 0, 0, 0, 0, 0, 0, 0, -1, 0, 1, 0, 0, 1, 0, 0, 1, -1, 1, 1, 0, 0, 1, 1, 1, 1, 0, 0, 0, 0, 1, 0, 1, 2, 0, 0, -1, 1, 1, 1, -3, 2, -1, 0, 0, -1, 1, 2, 2, 0, -4, 0, 1, 1, 0, 0, -1, -4, -5; 0, 0, 0, 0, 1, 0, 0, 0, 0, -1, 0, 0, 0, 0, -1, -1, 0, 0, 0, 0, -1, 0, 1, 0, 0, 0, 0, 0, 0, -1, -2, 0, 1, 0, -1, 0, -2, 0, -1, 0, 0, 0, 0, -1, 0, 2, 1, -1, 0, -1, 1, -2, -1, 1, -2, 1, 0, -1, 0, 0, 0, -1, 1, 2; 0, 0, 0, 0, 0, 1, 0, 0, 0, 0, 0, 0, 0, 0, 1, 0, 0, 0, 0, 1, 0, 0, 0, 1, 0, 0, 1, 0, 0, 1, -1, 1, 0, 0, 0, 0, 1, 1, -1, 0, 1, 0, 0, 1, 1, 0, 1, -1, 0, 1, 0, -1, -1, 1, -2, 0, 0, 0, 1, 1, 0, -1, 0, -1; 0, 0, 0, 0, 0, 0, 1, 0, 0, 0, 0, 0, -1, 0, 0, 0, 0, 0, 0, 0, 0, -1, -1, 0, 0, 0, 0, -1, 0, 1, 0, -1, 0, -1, 0, 0, 1, 0, 0, -1, 0, 0, -1, 1, 0, -1, 1, 0, 1, 0, -1, 0, 0, 1, 1, 0, 0, 0, 0, -1, -1, 0, 0, 2; 0, 0, 0, 0, 0, 0, 0, 1, 0, 0, 0, 0, 0, 0, -1, -1, 0, 0, 0, 0, 0, 1, 0, 0, 0, 0, 0, 1, 0, 0, 0, 0, 0, 0, 0, 0, -1, 0, 0, 1, 0, 0, 1, 0, 0, 0, -1, 0, 0, -1, 0, 0, 0, -1, 2, 3, 1, -1, 0, 0, 1, 0, 3, 4]]'
p1
tp2
Rp3
.