csage.libs.pari.gen_py
pari
p0
(S'[y^8 - 5*y^7 + 6*y^6 - y^3 - 3*y^2 - 2*y + 1, [2, 3], -163155167851, 1, [[1, -0.674024134100476, -3.06771176829463, -0.545691466650103, -0.284142513504193, 1.60812200970346, -5.34314372503871, 1.19151891162580; 1, 2.06965220814451, -0.325769804587883, 3.28346026267743, 0.656316366716060, 1.88619143151092, 1.21964383900666, 2.35834661761527; 1, -1.65049620803426 + 0.323008571816971*I, 1.23321526487867 + 0.612361911616816*I, 1.61980319526823 - 1.06624884589295*I, -1.02807909857009 + 1.63703285006143*I, -0.399618704790392 + 3.41714601678204*I, -1.37904804360945 - 2.12271002568910*I, 2.16806501083341 - 3.03399487279790*I; 1, 0.520330467525794 + 0.356151508532335*I, -0.623533814545399 + 0.146068577467022*I, -0.856100101594247 + 0.370632961889293*I, -3.61811738965168 - 0.824352737361821*I, 0.0519634315467479 - 3.54778461324509*I, 1.25607542598710 + 0.0360888171194426*I, -0.589022241946492 - 1.71753381160916*I; 1, -1.06764829651355 + 0.878897250385917*I, 0.0870593361079787 + 1.13108851322517*I, -0.632587491687642 - 1.87670630436993*I, 2.46010956161584 - 0.310111618927828*I, -0.399501447363542 - 0.360862036092728*I, 2.18472256063838 - 1.32803214330665*I, -1.35397553350745 + 2.49327367102962*I], [1, -0.674024134100476, -3.06771176829463, -0.545691466650103, -0.284142513504193, 1.60812200970346, -5.34314372503871, 1.19151891162580; 1, 2.06965220814451, -0.325769804587883, 3.28346026267743, 0.656316366716060, 1.88619143151092, 1.21964383900666, 2.35834661761527; 1, -1.32748763621729, 1.84557717649549, 0.553554349375282, 0.608953751491332, 3.01752731199165, -3.50175806929856, -0.865929861964493; 1, -1.97350477985123, 0.620853353261858, 2.68605204116117, -2.66511194863152, -3.81676472157243, 0.743661982079650, 5.20205988363132; 1, 0.876481976058129, -0.477465237078377, -0.485467139704953, -4.44247012701350, -3.49582118169834, 1.29216424310655, -2.30655605355566; 1, 0.164178958993459, -0.769602392012421, -1.22673306348354, -2.79376465228986, 3.59974804479184, 1.21998660886766, 1.12851156966267; 1, -0.188751046127632, 1.21814784933315, -2.50929379605758, 2.14999794268801, -0.760363483456270, 0.856690417331724, 1.13929813752217; 1, -1.94654554689947, -1.04402917711719, 1.24411881268229, 2.77022118054367, -0.0386394112708144, 3.51275470394503, -3.84724920453708], [1, -1, -3, -1, 0, 2, -5, 1; 1, 2, 0, 3, 1, 2, 1, 2; 1, -1, 2, 1, 1, 3, -4, -1; 1, -2, 1, 3, -3, -4, 1, 5; 1, 1, 0, 0, -4, -3, 1, -2; 1, 0, -1, -1, -3, 4, 1, 1; 1, 0, 1, -3, 2, -1, 1, 1; 1, -2, -1, 1, 3, 0, 4, -4], [8, -3, -2, 3, -4, 2, 0, 4; -3, 11, -6, 6, -4, 6, 11, -2; -2, -6, 10, 11, 2, -9, 17, 0; 3, 6, 11, 9, 5, 13, -12, 21; -4, -4, 2, 5, 34, -18, 13, 3; 2, 6, -9, 13, -18, -42, 7, 16; 0, 11, 17, -12, 13, 7, 34, -23; 4, -2, 0, 21, 3, 16, -23, -16], [163155167851, 30808103224, 160384481984, 142534253326, 149127498732, 59906446740, 64723033376, 45967264477; 0, 1, 0, 0, 0, 0, 0, 0; 0, 0, 1, 0, 0, 0, 0, 0; 0, 0, 0, 1, 0, 0, 0, 0; 0, 0, 0, 0, 1, 0, 0, 0; 0, 0, 0, 0, 0, 1, 0, 0; 0, 0, 0, 0, 0, 0, 1, 0; 0, 0, 0, 0, 0, 0, 0, 1], [16387569079, -3823878170, -5262959722, 701406271, 1168143434, 2535361858, 4425174543, 1888673118; -3823878170, 2413058044, -6577888917, 3583849648, 93036137, 3925244465, 4019309581, 1611132083; -5262959722, -6577888917, 3304375966, 3921568201, -2750795498, 1362988865, 3220552695, 871224658; 701406271, 3583849648, 3921568201, 707359492, 670660077, 614323355, -1170772703, 3078837575; 1168143434, 93036137, -2750795498, 670660077, 4403870928, -710709998, 460062705, 614323355; 2535361858, 3925244465, 1362988865, 614323355, -710709998, -3540683118, -1306469595, -846406890; 4425174543, 4019309581, 3220552695, -1170772703, 460062705, -1306469595, 56519270, -2234213523; 1888673118, 1611132083, 871224658, 3078837575, 614323355, -846406890, -2234213523, -3404986226], [163155167851, [-41740506241, 113109033463, 479348943, 227960983417, -143616194611, 114093679919, 265854605346, -322978170872; 60885159887, 36674591123, -95923299687, 115314609207, 39752550333, -104387244710, 262918947961, -84415511113; 76102025287, -48230544366, -228472556479, -80843756897, 131211283442, 231998323394, -323452359323, -206941456119; 14913606355, 85985954942, 53138212411, -59248708564, 9438786300, 37077779109, -167298907319, 131445813442; -51524506955, 14913606355, -1613705456, 137510461897, 13973092636, -63063975465, 77549794308, -42085720655; -4384391322, 25100795055, -23487089599, -76625302010, 54490492221, 140704495545, -80486416609, 72395265432; 23487089599, -27871480921, -99589114886, 29485186377, -97341705743, 70781559976, -204985466880, 175319287563; 25100795055, -81009693332, 27871480921, 95923299687, 76779656754, 15395938422, 73331339421, 16784723158]], []], [0.325975865899524, 3.06965220814451, -0.650496208034259 + 0.323008571816971*I, 1.52033046752579 + 0.356151508532335*I, -0.0676482965135495 + 0.878897250385917*I], [1, y - 1, y^7 - 5*y^6 + 6*y^5 - y^2 - 3*y - 2, y^2 - 2*y, y^3 - 3*y^2, y^5 - 4*y^4 + 3*y^3 - y^2 + 2*y + 1, y^7 - 4*y^6 + y^5 + 6*y^4 - y^2 - 4*y - 4, y^4 - 4*y^3 + 3*y^2 + 1], [1, 1, 2, 6, 17, 49, 146, 443; 0, 1, 2, 6, 18, 54, 163, 496; 0, 0, 0, 0, 0, 0, -1, -4; 0, 0, 1, 3, 9, 28, 86, 263; 0, 0, 0, 1, 4, 13, 41, 127; 0, 0, 0, 0, 0, 1, 5, 19; 0, 0, 0, 0, 0, 0, 1, 5; 0, 0, 0, 0, 1, 4, 14, 46], [1, 0, 0, 0, 0, 0, 0, 0, 0, 1, -1, 2, -1, 0, 2, 0, 0, -1, 1, 1, 1, 0, 2, -1, 0, 2, 1, 1, 0, 3, -2, 3, 0, -1, 1, 0, 5, 0, 1, 3, 0, 0, 0, 3, 0, -4, -1, 3, 0, 2, 2, -2, 1, -1, 4, -1, 0, 0, -1, 3, 3, 3, -1, -4; 0, 1, 0, 0, 0, 0, 0, 0, 1, 0, 0, 2, 0, 0, 1, 1, 0, 0, 0, -1, 1, 1, 0, -1, 0, 2, -1, 2, 0, 2, 1, 1, 0, 0, 1, 0, 1, 3, -2, 3, 0, 0, 1, 2, 3, 2, -2, 0, 0, 1, 0, 1, -2, -2, 0, 3, 0, 1, -1, 1, 3, 0, 3, 0; 0, 0, 1, 0, 0, 0, 0, 0, 0, 0, -1, 0, 0, -1, 1, 0, 1, -1, -1, 0, 0, 1, -3, 1, 0, 0, 0, 0, 0, 2, -2, -1, 0, 0, 0, 0, -1, -1, 0, 3, 0, -1, 1, 2, -1, -3, 2, 3, 0, 1, -3, -2, 0, 2, -5, 0, 0, 0, 1, -1, 3, 3, 0, -4; 0, 0, 0, 1, 0, 0, 0, 0, 0, 1, 0, 0, 0, 0, 0, 1, 0, 0, 0, 0, -1, 0, -1, 1, 1, 0, 0, 1, 1, 1, 1, 0, 0, 0, -1, 1, -1, 1, 1, 0, 0, 0, 0, 1, 1, 0, 1, 2, 0, 0, -1, 1, 1, 1, 0, -2, 0, 1, 1, 0, 0, 2, -2, 2; 0, 0, 0, 0, 1, 0, 0, 0, 0, 0, 0, 1, 0, 0, 0, 0, 0, 0, 0, 0, 0, 0, 1, -1, 0, 1, 0, 0, -1, 0, 0, 1, 1, 0, 0, -1, -1, 1, 1, 0, 0, 0, 0, 0, 1, 3, -1, 1, 0, 0, 1, 0, 1, -1, 1, 1, 0, 0, -1, 1, 0, 1, 1, 0; 0, 0, 0, 0, 0, 1, 0, 0, 0, 0, 0, 0, 0, 0, 0, 1, 0, 0, 0, 0, 0, 0, -1, 0, 0, 0, 0, 0, 1, 0, 0, -1, 0, 0, 0, 1, -1, -3, 0, -1, 1, 0, 0, 0, -3, -1, 1, 0, 0, 0, -1, 0, 0, 1, 0, 0, 0, 1, 0, -1, -1, 0, 0, -1; 0, 0, 0, 0, 0, 0, 1, 0, 0, 0, 0, 0, 0, 1, -1, 0, 0, 0, -1, 0, 0, 0, -1, 0, 0, 0, 0, 0, 0, -1, 0, 1, 0, 0, 0, 0, 1, -1, 0, -2, 0, 1, 0, -1, -1, 0, 1, -2, 1, -1, -1, 0, 0, 1, -2, 1, 0, 0, 0, 1, -2, -2, 1, 1; 0, 0, 0, 0, 0, 0, 0, 1, 0, 0, 0, 0, 1, 1, 0, -1, 0, 0, 0, 0, 0, -1, 1, 0, 0, 0, 0, 1, -1, -1, 0, 1, 0, 1, 0, -1, -1, -1, 0, -1, 0, 1, -1, -1, -1, 1, 1, -1, 0, 0, 1, 0, 0, 1, -1, 1, 1, -1, 0, 1, -1, -1, 1, 1]]'
p1
tp2
Rp3
.